LIBRARY omniorb2_rt
VERSION 2.0
EXPORTS
??_C@_04ECJH@?31?40?$AA@
?__nil_BindingIterator@BindingIterator_proxyObjectFactory@CosNaming@@0PAVBindingIterator@2@A
??_C@_0N@DFLF@omniORB2_BOA?$AA@
??_ETaggedProfile@IOP@@QAEPAXI@Z
?__nil_NamingContext@NamingContext_proxyObjectFactory@CosNaming@@0PAVNamingContext@2@A
?buffer_size@tcpSocketStrand@@2IB
?max_giop_message_size@GIOP_Basetypes@@2IA
??_C@_08CNEN@omniORB2?$AA@
?has_spawned_rendevous_threads@tcpSocketRendezvous@@2EA
??_ETaggedProfile@IOP@@QAEPAXI@Z
??_ETaggedProfile@IOP@@QAEPAXI@Z
?proxyStubs@proxyObjectFactory@@2PAV1@A
?hash_table_size@omniORB@@2IB
?localObjectTable@omniObject@@2PAPAV1@A
?proxyObjectTable@omniObject@@2PAV1@A
?configFile@omni@@2PAVinitFile@@A
?strictIIOP@omniORB@@2EA
?traceLevel@omniORB@@2KA
??1?$_CORBA_Unbounded_Sequence_w_FixSizeElement@E$00$00@@QAE@XZ
?boa_initialised@omni@@2EA
?orb_initialised@omni@@2EA
??1?$_CORBA_Unbounded_Sequence_w_FixSizeElement@E$00$00@@QAE@XZ
??1?$_CORBA_Unbounded_Sequence_w_FixSizeElement@E$00$00@@QAE@XZ
??0omni_mutex@@QAE@XZ
??1?$_CORBA_Sequence@E@@QAE@XZ
?myPrincipalID@omni@@2V?$_CORBA_Unbounded_Sequence_w_FixSizeElement@E$00$00@@A
?boa@BOA@CORBA@@2V12@A
?incomingAnchor@Anchor@@2V1@A
?seed@omniORB@@0UomniObjectKey@@A
??1?$_CORBA_Sequence@E@@QAE@XZ
??1omni_mutex@@QAE@XZ
?non_reentrant@LibcWrapper@@2Vomni_mutex@@A
??1TaggedProfile@IOP@@QAE@XZ
?outgoingAnchor@Anchor@@2V1@A
??1?$_CORBA_Sequence@E@@QAE@XZ
?objectTableLock@omniObject@@2Vomni_mutex@@A
?initLock@omni@@2Vomni_mutex@@A
?CORBA_Object_nil@Object@CORBA@@2V12@A
?orb@ORB@CORBA@@2V12@A
??1TaggedProfile@IOP@@QAE@XZ
?lock@omni_mutex@@QAEHXZ
??1TaggedProfile@IOP@@QAE@XZ
??_ETaggedProfile@IOP@@QAEPAXI@Z
??_EServiceContext@IOP@@QAEPAXI@Z
?unlock@omni_mutex@@QAEHXZ
?version@SysExceptRepoID@GIOP_Basetypes@@2PBEB
?maxIDLen@SysExceptRepoID@GIOP_Basetypes@@2KB
??_EServiceContext@IOP@@QAEPAXI@Z
?MessageError@MessageHeader@GIOP_Basetypes@@2PBEB
?CloseConnection@MessageHeader@GIOP_Basetypes@@2PBEB
??_EServiceContext@IOP@@QAEPAXI@Z
?LocateReply@MessageHeader@GIOP_Basetypes@@2PBEB
?LocateRequest@MessageHeader@GIOP_Basetypes@@2PBEB
??0omni_condition@@QAE@PAVomni_mutex@@@Z
?CancelRequest@MessageHeader@GIOP_Basetypes@@2PBEB
??1ServiceContext@IOP@@QAE@XZ
?Reply@MessageHeader@GIOP_Basetypes@@2PBEB
?Request@MessageHeader@GIOP_Basetypes@@2PBEB
??1?$_CORBA_Unbounded_Sequence_w_FixSizeElement@E$00$00@@QAE@XZ
?max_alignment@omni@@2W4alignment_t@1@B
?myBOAId@omni@@2PBDB
??1omni_condition@@QAE@XZ
?myORBId@omni@@2PBDB
??1ServiceContext@IOP@@QAE@XZ
?myByteOrder@omni@@2EB
??1ServiceContext@IOP@@QAE@XZ
?current_minor@IIOP@@2EB
?current_major@IIOP@@2EB
?TransactionService@IOP@@2KB
?TAG_MULTIPLE_COMPONENTS@IOP@@2KB
?TAG_INTERNET_IOP@IOP@@2KB
??1?$_CORBA_Sequence@E@@QAE@XZ
?INV_OBJREF@SysExceptRepoID@GIOP_Basetypes@@2U_SysExceptRepoID@2@B
?versionLen@SysExceptRepoID@GIOP_Basetypes@@2KB
??1TaggedProfile@IOP@@QAE@XZ
?BAD_TYPECODE@SysExceptRepoID@GIOP_Basetypes@@2U_SysExceptRepoID@2@B
?wait@omni_condition@@QAEHXZ
?INV_FLAG@SysExceptRepoID@GIOP_Basetypes@@2U_SysExceptRepoID@2@B
?OBJECT_NOT_EXIST@SysExceptRepoID@GIOP_Basetypes@@2U_SysExceptRepoID@2@B
?INITIALIZE@SysExceptRepoID@GIOP_Basetypes@@2U_SysExceptRepoID@2@B
?INV_IDENT@SysExceptRepoID@GIOP_Basetypes@@2U_SysExceptRepoID@2@B
?NO_MEMORY@SysExceptRepoID@GIOP_Basetypes@@2U_SysExceptRepoID@2@B
?OBJ_ADAPTER@SysExceptRepoID@GIOP_Basetypes@@2U_SysExceptRepoID@2@B
??_EString_member@CORBA@@QAEPAXI@Z
?INTERNAL@SysExceptRepoID@GIOP_Basetypes@@2U_SysExceptRepoID@2@B
?timed_wait@omni_condition@@QAEHKK@Z
?TRANSIENT@SysExceptRepoID@GIOP_Basetypes@@2U_SysExceptRepoID@2@B
??_EString_member@CORBA@@QAEPAXI@Z
??_EServiceContext@IOP@@QAEPAXI@Z
?DATA_CONVERSION@SysExceptRepoID@GIOP_Basetypes@@2U_SysExceptRepoID@2@B
?NO_RESPONSE@SysExceptRepoID@GIOP_Basetypes@@2U_SysExceptRepoID@2@B
??_EString_member@CORBA@@QAEPAXI@Z
?BAD_CONTEXT@SysExceptRepoID@GIOP_Basetypes@@2U_SysExceptRepoID@2@B
??1String_member@CORBA@@QAE@XZ
?BAD_INV_ORDER@SysExceptRepoID@GIOP_Basetypes@@2U_SysExceptRepoID@2@B
??_EString_member@CORBA@@QAEPAXI@Z
??1String_member@CORBA@@QAE@XZ
?signal@omni_condition@@QAEHXZ
?FREE_MEM@SysExceptRepoID@GIOP_Basetypes@@2U_SysExceptRepoID@2@B
?MARSHAL@SysExceptRepoID@GIOP_Basetypes@@2U_SysExceptRepoID@2@B
??1String_member@CORBA@@QAE@XZ
?BAD_OPERATION@SysExceptRepoID@GIOP_Basetypes@@2U_SysExceptRepoID@2@B
?BAD_PARAM@SysExceptRepoID@GIOP_Basetypes@@2U_SysExceptRepoID@2@B
??1String_member@CORBA@@QAE@XZ
??_ENameComponent@CosNaming@@QAEPAXI@Z
?COMM_FAILURE@SysExceptRepoID@GIOP_Basetypes@@2U_SysExceptRepoID@2@B
??_ENameComponent@CosNaming@@QAEPAXI@Z
??1ServiceContext@IOP@@QAE@XZ
?UNKNOWN@SysExceptRepoID@GIOP_Basetypes@@2U_SysExceptRepoID@2@B
??1String_member@CORBA@@QAE@XZ
?broadcast@omni_condition@@QAEHXZ
?PERSIST_STORE@SysExceptRepoID@GIOP_Basetypes@@2U_SysExceptRepoID@2@B
??_ENameComponent@CosNaming@@QAEPAXI@Z
?NO_RESOURCES@SysExceptRepoID@GIOP_Basetypes@@2U_SysExceptRepoID@2@B
?NO_PERMISSION@SysExceptRepoID@GIOP_Basetypes@@2U_SysExceptRepoID@2@B
??_ENameComponent@CosNaming@@QAEPAXI@Z
?INTF_REPOS@SysExceptRepoID@GIOP_Basetypes@@2U_SysExceptRepoID@2@B
?NO_IMPLEMENT@SysExceptRepoID@GIOP_Basetypes@@2U_SysExceptRepoID@2@B
??_ENameComponent@CosNaming@@QAEPAXI@Z
?IMP_LIMIT@SysExceptRepoID@GIOP_Basetypes@@2U_SysExceptRepoID@2@B
??1NameComponent@CosNaming@@QAE@XZ
??_ETaggedProfile@IOP@@QAEPAXI@Z
??1NameComponent@CosNaming@@QAE@XZ
??1NameComponent@CosNaming@@QAE@XZ
??1NameComponent@CosNaming@@QAE@XZ
??1NameComponent@CosNaming@@QAE@XZ
?endl@@YAAAVostream@@AAV1@@Z
??_EBinding@CosNaming@@QAEPAXI@Z
??_EBinding@CosNaming@@QAEPAXI@Z
??_EString_member@CORBA@@QAEPAXI@Z
??_EBinding@CosNaming@@QAEPAXI@Z
?flush@@YAAAVostream@@AAV1@@Z
??1?$_CORBA_Unbounded_Sequence_w_FixSizeElement@E$00$00@@QAE@XZ
??_EBinding@CosNaming@@QAEPAXI@Z
??_EBinding@CosNaming@@QAEPAXI@Z
??1String_member@CORBA@@QAE@XZ
??1?$_CORBA_Unbounded_Sequence@UNameComponent@CosNaming@@@@QAE@XZ
??1?$_CORBA_Unbounded_Sequence@UNameComponent@CosNaming@@@@QAE@XZ
??1?$_CORBA_Unbounded_Sequence@UNameComponent@CosNaming@@@@QAE@XZ
??1?$_CORBA_Sequence@E@@QAE@XZ
??_ENameComponent@CosNaming@@QAEPAXI@Z
??1?$_CORBA_Unbounded_Sequence@UNameComponent@CosNaming@@@@QAE@XZ
??1?$_CORBA_Unbounded_Sequence@UNameComponent@CosNaming@@@@QAE@XZ
??1TaggedProfile@IOP@@QAE@XZ
??1?$_CORBA_Sequence@UNameComponent@CosNaming@@@@QAE@XZ
??1?$_CORBA_Sequence@UNameComponent@CosNaming@@@@QAE@XZ
??1?$_CORBA_Sequence@UNameComponent@CosNaming@@@@QAE@XZ
??1NameComponent@CosNaming@@QAE@XZ
??1?$_CORBA_Sequence@UNameComponent@CosNaming@@@@QAE@XZ
??1Binding@CosNaming@@QAE@XZ
??1Binding@CosNaming@@QAE@XZ
??1?$_CORBA_Sequence@UNameComponent@CosNaming@@@@QAE@XZ
??_EServiceContext@IOP@@QAEPAXI@Z
??1Binding@CosNaming@@QAE@XZ
??1Binding@CosNaming@@QAE@XZ
??0init_t@omni_thread@@QAE@XZ
??1Binding@CosNaming@@QAE@XZ
?string_alloc@CORBA@@SAPADK@Z
??_EBinding@CosNaming@@QAEPAXI@Z
??0BOA@CORBA@@QAE@XZ
??0GIOP_C@@QAE@PAVRope@@@Z
??0GIOP_S@@QAE@PAVStrand@@@Z
??0NetBufferedStream@@QAE@PAVStrand@@EEI@Z
??0ORB@CORBA@@QAE@XZ
??0Object@CORBA@@QAE@XZ
??0Strand@@QAE@PAVRope@@E@Z
??0omniObject@@IAE@XZ
??0proxyObjectFactory@@QAE@XZ
?_CORBA_new_operator_return_null@@YAXXZ
?gethostbyname@LibcWrapper@@SAHPBDAAVhostent_var@1@AAH@Z
?hash@omniORB@@SAHAAUomniObjectKey@@@Z
?init@omni@@SAXAAHPAPADPBD@Z
?profileToEncapStream@IIOP@@SAXAAUProfileBody@1@AAV?$_CORBA_Unbounded_Sequence_w_FixSizeElement@E$00$00@@@Z
??1ServiceContext@IOP@@QAE@XZ
??0initFile@@QAE@XZ
??1BOA@CORBA@@QAE@XZ
??1ORB@CORBA@@QAE@XZ
?string_free@CORBA@@SAXPAD@Z
??_7Object@CORBA@@6B@
?NP_alignedSize@NameComponent@CosNaming@@QBEII@Z
?generateNewKey@omniORB@@SAXAAUomniObjectKey@@@Z
??_7omniObject@@6B@
??_7proxyObjectFactory@@6B@
??1?$_CORBA_Unbounded_Sequence@UNameComponent@CosNaming@@@@QAE@XZ
??_C@_06LIAI@nobody?$AA@
??_7NO_MEMORY@CORBA@@6B@
??_7initFile@@6B@
?isipaddr@LibcWrapper@@SAHPBD@Z
??_C@_0FC@CNCM@NetBufferedStream?3?3NetbufferedSt@
?ORB_init@CORBA@@SAPAVORB@1@AAHPAPADPBD@Z
?dispose@BOA@CORBA@@QAEXPAVObject@2@@Z
?string_dup@CORBA@@SAPADPBD@Z
??_7Strand@@6B@
?EncapStreamToProfile@IIOP@@SAXABV?$_CORBA_Unbounded_Sequence_w_FixSizeElement@E$00$00@@AAUProfileBody@1@@Z
??_GObject@CORBA@@UAEPAXI@Z
??1GIOP_C@@QAE@XZ
??1GIOP_S@@QAE@XZ
??_2NameComponent@CosNaming@@QBEXAAVNetBufferedStream@@@Z
??_GproxyObjectFactory@@UAEPAXI@Z
??0tcpSocketStrand@@QAE@PAVtcpSocketRope@@PAVtcpSocketEndpoint@@E@Z
??_GomniObject@@MAEPAXI@Z
??_R0?AVfatalException@omniORB@@@8
??_GinitFile@@UAEPAXI@Z
??4String_member@CORBA@@QAEAAV01@ABVString_var@1@@Z
??_7INITIALIZE@CORBA@@6B@
??_7SystemException@CORBA@@6B@
?_nil@Object@CORBA@@SAPAV12@XZ
__CT??_R0?AVfatalException@omniORB@@@812
?obj_is_ready@BOA@CORBA@@QAEXPAVObject@2@PAVImplementationDef@2@@Z
??1?$_CORBA_Sequence@UNameComponent@CosNaming@@@@QAE@XZ
?nullkey@omniORB@@SA?AUomniObjectKey@@XZ
??1proxyObjectFactory@@UAE@XZ
??_3NameComponent@CosNaming@@QAEXAAVNetBufferedStream@@@Z
??_GStrand@@UAEPAXI@Z
??_C@_0BI@NEGP@GIOP_C?5dtor?5re?9entered?4?$AA@
??0omniObject@@IAE@PBDPAVRope@@PAEIPAV?$_CORBA_Unbounded_Sequence@UTaggedProfile@IOP@@@@E@Z
__CTA1?AVfatalException@omniORB@@
??1initFile@@UAE@XZ
??0String_var@CORBA@@QAE@ABVString_member@1@@Z
?BOA_init@ORB@CORBA@@QAEPAVBOA@2@AAHPAPADPBD@Z
??_7Exception@CORBA@@6B@
??_7NO_MEMORY@CORBA@@6B@
??_7SystemException@CORBA@@6B@
?RequestReceived@GIOP_S@@QAEXE@Z
?NP_is_nil@Object@CORBA@@QBEEXZ
??_EString_member@CORBA@@QAEPAXI@Z
??1Binding@CosNaming@@QAE@XZ
??_7tcpSocketStrand@@6B@
??8@YAHABUomniObjectKey@@0@Z
__TI1?AVfatalException@omniORB@@
??0proxyObjectFactory_iterator@@QAE@XZ
?impl_is_ready@BOA@CORBA@@QAEXPAVImplementationDef@2@E@Z
??1Strand@@UAE@XZ
??_2NameComponent@CosNaming@@QBEXAAVMemBufferedStream@@@Z
??_R0?AVException@CORBA@@@8
?initialize@initFile@@QAEXXZ
??4String_var@CORBA@@QAEAAV01@ABVString_member@1@@Z
?_duplicate@Object@CORBA@@SAPAV12@PAV12@@Z
??_7Exception@CORBA@@6B@
?endl@@YAAAVostream@@AAV1@@Z
__CT??_R0?AVException@CORBA@@@8Exception::Exception4
??9@YAHABUomniObjectKey@@0@Z
??_R0?AVMARSHAL@CORBA@@@8
??RproxyObjectFactory_iterator@@QAEPAVproxyObjectFactory@@XZ
??1String_member@CORBA@@QAE@XZ
??_7MARSHAL@CORBA@@6B@
??_C@_0DN@PNHG@GIOP_S?3?3RequestReceived?3?5garbage@
??_7SystemException@CORBA@@6B@
?getBOA@BOA@CORBA@@SAPAV12@XZ
??_3NameComponent@CosNaming@@QAEXAAVMemBufferedStream@@@Z
??AString_var@CORBA@@QAEAADK@Z
??_R0?AVException@CORBA@@@8
??_R0?AVSystemException@CORBA@@@8
??_7NO_MEMORY@CORBA@@6B@
??1fatalException@omniORB@@QAE@XZ
?keyToOctetSequence@omniORB@@SAPAV?$_CORBA_Unbounded_Sequence_w_FixSizeElement@E$00$00@@ABUomniObjectKey@@@Z
?NP_release@Object@CORBA@@QAEXXZ
?_widenFromTheMostDerivedIntf@AnonymousObject@@MAEPAXPBD@Z
?wrapper@omni_thread@@CAKPAX@Z
??_ENameComponent@CosNaming@@QAEPAXI@Z
__CT??_R0?AVException@CORBA@@@8Exception::Exception4
?flush@@YAAAVostream@@AAV1@@Z
?incrRefCount@Strand@@QAEXE@Z
__CT??_R0?AVSystemException@CORBA@@@8SystemException::SystemException12
??_7SystemException@CORBA@@6B@
??_7Exception@CORBA@@6B@
??_C@_0DI@HOAJ@GIOP_S?3?3RequestReceived?$CI?$CJ?5entere@
?NP_alignedSize@Binding@CosNaming@@QBEII@Z
??AString_var@CORBA@@QBEDK@Z
??_R0?AVSystemException@CORBA@@@8
??_C@_0DG@JEEE@Configuration?5error?3?5No?5values?5f@
??_R0?AVNO_MEMORY@CORBA@@@8
??0NetBufferedStream@@QAE@PAVRope@@EEI@Z
?objectIsReady@omni@@SAXPAVomniObject@@@Z
??_7BAD_PARAM@CORBA@@6B@
??_7SystemException@CORBA@@6B@
?PR_setobj@Object@CORBA@@QAEXPAVomniObject@@@Z
__CT??_R0?AVSystemException@CORBA@@@8SystemException::SystemException12
?RequestHeaderSize@GIOP_C@@SAIII@Z
?_duplicate@BOA@CORBA@@SAPAV12@PAV12@@Z
??_C@_01PJCK@?4?$AA@
??_7Exception@CORBA@@6B@
??_7SystemException@CORBA@@6B@
?decrRefCount@Strand@@QAEXE@Z
__CT??_R0?AVNO_MEMORY@CORBA@@@8NO_MEMORY::NO_MEMORY12
??_2Binding@CosNaming@@QBEXAAVNetBufferedStream@@@Z
??_2String_member@CORBA@@QBEXAAVNetBufferedStream@@@Z
??0omni_thread@@QAE@P6AXPAX@Z0W4priority_t@0@@Z
??_7COMM_FAILURE@CORBA@@6B@
??_C@_0DM@PIJF@Configuration?5error?3?5Invalid?5obj@
??1NameComponent@CosNaming@@QAE@XZ
??_R0?AVNO_MEMORY@CORBA@@@8
??_R0?AVINITIALIZE@CORBA@@@8
__CTA3?AVNO_MEMORY@CORBA@@
?PR_getobj@Object@CORBA@@QAEPAVomniObject@@XZ
??_7SystemException@CORBA@@6B@
??_R0?AVException@CORBA@@@8
??_7Exception@CORBA@@6B@
?_nil@BOA@CORBA@@SAPAV12@XZ
?InitialiseRequest@GIOP_C@@QAEXPBXIPBDIIE@Z
?is_idle@Strand@@QAEEE@Z
?octetSequenceToKey@omniORB@@SA?AUomniObjectKey@@ABV?$_CORBA_Unbounded_Sequence_w_FixSizeElement@E$00$00@@@Z
??_C@_02CMHI@?5?4?$AA@
__CT??_R0?AVNO_MEMORY@CORBA@@@8NO_MEMORY::NO_MEMORY12
??_7Exception@CORBA@@6B@
__CT??_R0?AVINITIALIZE@CORBA@@@8INITIALIZE::INITIALIZE12
__TI3?AVNO_MEMORY@CORBA@@
??_3Binding@CosNaming@@QAEXAAVNetBufferedStream@@@Z
__CT??_R0?AVException@CORBA@@@8Exception::Exception4
??_7SystemException@CORBA@@6B@
??1NetBufferedStream@@QAE@XZ
??_C@_0DH@DLMI@Configuration?5error?3?5Multiple?5en@
?_is_a@Object@CORBA@@QAEEPBD@Z
__CTA3?AVNO_MEMORY@CORBA@@
__CTA3?AVINITIALIZE@CORBA@@
?is_nil@CORBA@@SAEPAVBOA@1@@Z
??_7Exception@CORBA@@6B@
??_R0?AVSystemException@CORBA@@@8
??0Sync@Strand@@QAE@PAV1@EE@Z
??_7OBJ_ADAPTER@CORBA@@6B@
??_C@_0BJ@EGKO@?5found?5in?5configuration?4?$AA@
??_7MARSHAL@CORBA@@6B@
??_C@_00A@?$AA@
__TI3?AVNO_MEMORY@CORBA@@
__TI3?AVINITIALIZE@CORBA@@
??_EBinding@CosNaming@@QAEPAXI@Z
??_7COMM_FAILURE@CORBA@@6B@
??_R0?AVNO_MEMORY@CORBA@@@8
__CT??_R0?AVSystemException@CORBA@@@8SystemException::SystemException12
??1Exception@CORBA@@UAE@XZ
??_7Exception@CORBA@@6B@
??_R0?AVException@CORBA@@@8
?release@CORBA@@SAXPAVBOA@1@@Z
??_C@_02CEEM@?$CJ?5?$AA@
??_R0?AVException@CORBA@@@8
??_C@_0DK@EKKD@GIOP_C?3?3InitialiseRequest?$CI?$CJ?5ente@
?run@omni_thread@@EAEXPAX@Z
??_R0?AVException@CORBA@@@8
__CT??_R0?AVNO_MEMORY@CORBA@@@8NO_MEMORY::NO_MEMORY12
??_7MARSHAL@CORBA@@6B@
?align_and_get_bytes@NetBufferedStream@@AAEPAXW4alignment_t@omni@@I@Z
?_is_equivalent@Object@CORBA@@QAEEPAV12@@Z
??_R0?AVCOMM_FAILURE@CORBA@@@8
__CT??_R0?AVException@CORBA@@@8Exception::Exception4
?get_char_array@NetBufferedStream@@QAEXPAEH@Z
??_C@_0CG@HIHJ@Configuration?5error?3?5?5Unknown?5fi@
??_7SystemException@CORBA@@6B@
__CT??_R0?AVException@CORBA@@@8Exception::Exception4
??0SystemException@CORBA@@QAE@ABV01@@Z
__CT??_R0?AVException@CORBA@@@8Exception::Exception4
__CTA3?AVNO_MEMORY@CORBA@@
?create@BOA@CORBA@@QAEPAVObject@2@ABV?$_CORBA_Unbounded_Sequence_w_FixSizeElement@E$00$00@@PAVInterfaceDef@2@PAVImplementationDef@2@@Z
??_7SystemException@CORBA@@6B@
??_R0?AVSystemException@CORBA@@@8
__CT??_R0?AVCOMM_FAILURE@CORBA@@@8COMM_FAILURE::COMM_FAILURE12
??_7INV_OBJREF@CORBA@@6B@
??_C@_0M@KNBD@NAMESERVICE?$AA@
?run_undetached@omni_thread@@EAEPAXPAX@Z
??_R0?AVSystemException@CORBA@@@8
?allocbuf@?$_CORBA_Sequence@UNameComponent@CosNaming@@@@SAPAUNameComponent@CosNaming@@K@Z
??1?$_CORBA_Unbounded_Sequence@UNameComponent@CosNaming@@@@QAE@XZ
??_R0?AVSystemException@CORBA@@@8
__TI3?AVNO_MEMORY@CORBA@@
??_7MARSHAL@CORBA@@6B@
??_7SystemException@CORBA@@6B@
__CT??_R0?AVSystemException@CORBA@@@8SystemException::SystemException12
__CTA3?AVCOMM_FAILURE@CORBA@@
??_R0?AVException@CORBA@@@8
??_7Exception@CORBA@@6B@
??_C@_0BJ@NPAC@SOFTWARE?2ORL?2omniORB?22?40?$AA@
__CT??_R0?AVSystemException@CORBA@@@8SystemException::SystemException12
?get_id@BOA@CORBA@@QAEPAV?$_CORBA_Unbounded_Sequence_w_FixSizeElement@E$00$00@@PAVObject@2@@Z
??_R0?AVException@CORBA@@@8
__CT??_R0?AVSystemException@CORBA@@@8SystemException::SystemException12
??_Gomni_thread@@MAEPAXI@Z
??_7Exception@CORBA@@6B@
__TI3?AVCOMM_FAILURE@CORBA@@
__CT??_R0?AVException@CORBA@@@8Exception::Exception4
??_C@_0P@CBEO@OMNIORB_CONFIG?$AA@
??_R0?AVException@CORBA@@@8
??_R0?AVOBJ_ADAPTER@CORBA@@@8
??1SystemException@CORBA@@UAE@XZ
??1omniRopeAndKey@@QAE@XZ
??_7Exception@CORBA@@6B@
??_7MARSHAL@CORBA@@6B@
??_7SystemException@CORBA@@6B@
??_R0?AVCOMM_FAILURE@CORBA@@@8
??_R0?AVMARSHAL@CORBA@@@8
__CT??_R0?AVException@CORBA@@@8Exception::Exception4
??_R0?AVSystemException@CORBA@@@8
??_C@_0CA@ONIA@IDL?3CosNaming?1NamingContext?31?40?$AA@
__CT??_R0?AVException@CORBA@@@8Exception::Exception4
?change_implementation@BOA@CORBA@@QAEXPAVObject@2@PAVImplementationDef@2@@Z
__CT??_R0?AVOBJ_ADAPTER@CORBA@@@8OBJ_ADAPTER::OBJ_ADAPTER12
??0omni_thread@@QAE@P6APAXPAX@Z0W4priority_t@0@@Z
??1?$_CORBA_Sequence@UNameComponent@CosNaming@@@@QAE@XZ
??_R0?AVException@CORBA@@@8
??_R0?AVSystemException@CORBA@@@8
__CT??_R0?AVCOMM_FAILURE@CORBA@@@8COMM_FAILURE::COMM_FAILURE12
__CT??_R0?AVMARSHAL@CORBA@@@8MARSHAL::MARSHAL12
__CT??_R0?AVSystemException@CORBA@@@8SystemException::SystemException12
?freebuf@?$_CORBA_Sequence@UNameComponent@CosNaming@@@@SAXPAUNameComponent@CosNaming@@@Z
??_R0?AVSystemException@CORBA@@@8
?_hash@Object@CORBA@@QAEKK@Z
??_7COMM_FAILURE@CORBA@@6B@
__CTA3?AVOBJ_ADAPTER@CORBA@@
??_7Exception@CORBA@@6B@
??_7SystemException@CORBA@@6B@
__CT??_R0?AVException@CORBA@@@8Exception::Exception4
__CT??_R0?AVSystemException@CORBA@@@8SystemException::SystemException12
__CTA3?AVCOMM_FAILURE@CORBA@@
__CTA3?AVMARSHAL@CORBA@@
?get_principal@BOA@CORBA@@QAEPAVPrincipal@2@PAVObject@2@PAVEnvironment@2@@Z
__CT??_R0?AVSystemException@CORBA@@@8SystemException::SystemException12
??1Binding@CosNaming@@QAE@XZ
??_R0?AVException@CORBA@@@8
?NP_RepositoryId@SystemException@CORBA@@UBEPBDXZ
__TI3?AVOBJ_ADAPTER@CORBA@@
??_R0?AVINV_OBJREF@CORBA@@@8
??_7INITIALIZE@CORBA@@6B@
??_R0?AVException@CORBA@@@8
??_R0?AVSystemException@CORBA@@@8
__TI3?AVCOMM_FAILURE@CORBA@@
__TI3?AVMARSHAL@CORBA@@
??4NameComponent@CosNaming@@QAEAAU01@ABU01@@Z
??_R0?AVBAD_PARAM@CORBA@@@8
__CT??_R0?AVException@CORBA@@@8Exception::Exception4
??_C@_00A@?$AA@
__CT??_R0?AVINV_OBJREF@CORBA@@@8INV_OBJREF::INV_OBJREF12
??_R0?AVMARSHAL@CORBA@@@8
?deactivate_impl@BOA@CORBA@@QAEXPAVImplementationDef@2@@Z
??0omni_thread@@IAE@PAXW4priority_t@0@@Z
??1Exception@CORBA@@UAE@XZ
??_7Exception@CORBA@@6B@
__CT??_R0?AVException@CORBA@@@8Exception::Exception4
__CT??_R0?AVSystemException@CORBA@@@8SystemException::SystemException12
??_R0?AVfatalException@omniORB@@@8
__CT??_R0?AVBAD_PARAM@CORBA@@@8BAD_PARAM::BAD_PARAM12
?_non_existent@Object@CORBA@@QAEEXZ
??_R0?AVSystemException@CORBA@@@8
??_7SystemException@CORBA@@6B@
__CTA3?AVINV_OBJREF@CORBA@@
__CT??_R0?AVMARSHAL@CORBA@@@8MARSHAL::MARSHAL12
??_R0?AVException@CORBA@@@8
??_R0?AVSystemException@CORBA@@@8
??1Exception@CORBA@@UAE@XZ
??0NameComponent@CosNaming@@QAE@XZ
??_R0?AVMARSHAL@CORBA@@@8
__CT??_R0?AVfatalException@omniORB@@@812
__CTA3?AVBAD_PARAM@CORBA@@
??_GException@CORBA@@UAEPAXI@Z
?deactivate_obj@BOA@CORBA@@QAEXPAVObject@2@@Z
??0SystemException@CORBA@@QAE@ABV01@@Z
__CT??_R0?AVSystemException@CORBA@@@8SystemException::SystemException12
__TI3?AVINV_OBJREF@CORBA@@
__CTA3?AVMARSHAL@CORBA@@
__CT??_R0?AVException@CORBA@@@8Exception::Exception4
__CT??_R0?AVSystemException@CORBA@@@8SystemException::SystemException12
__CT??_R0?AVMARSHAL@CORBA@@@8MARSHAL::MARSHAL12
__CTA1?AVfatalException@omniORB@@
__TI3?AVBAD_PARAM@CORBA@@
??0SystemException@CORBA@@QAE@ABV01@@Z
??_7Exception@CORBA@@6B@
__TI3?AVMARSHAL@CORBA@@
?common_constructor@omni_thread@@AAEXPAXW4priority_t@1@H@Z
??_R0?AVSystemException@CORBA@@@8
??_R0?AVCOMM_FAILURE@CORBA@@@8
??_R0?AVMARSHAL@CORBA@@@8
??_GSystemException@CORBA@@UAEPAXI@Z
__CTA3?AVMARSHAL@CORBA@@
__TI1?AVfatalException@omniORB@@
??_C@_0CH@GNLH@GIOP?3?3LOCATION_FORWARD?3?5retry?5re@
??_R0?AVException@CORBA@@@8
??1Exception@CORBA@@UAE@XZ
__CT??_R0?AVSystemException@CORBA@@@8SystemException::SystemException12
__CT??_R0?AVCOMM_FAILURE@CORBA@@@8COMM_FAILURE::COMM_FAILURE12
__CT??_R0?AVMARSHAL@CORBA@@@8MARSHAL::MARSHAL12
__TI3?AVMARSHAL@CORBA@@
??_2Binding@CosNaming@@QBEXAAVMemBufferedStream@@@Z
??_C@_0EO@GHJM@Received?5GIOP?3?3LOCATION_FORWARD?5@
??1SystemException@CORBA@@UAE@XZ
__CT??_R0?AVException@CORBA@@@8Exception::Exception4
??_R0?AVMARSHAL@CORBA@@@8
__CTA3?AVCOMM_FAILURE@CORBA@@
__CTA3?AVMARSHAL@CORBA@@
??0SystemException@CORBA@@QAE@ABV01@@Z
??1SystemException@CORBA@@UAE@XZ
??_R0?AVSystemException@CORBA@@@8
??1Exception@CORBA@@UAE@XZ
?length@?$_CORBA_Sequence@E@@QAEXK@Z
__CT??_R0?AVMARSHAL@CORBA@@@8MARSHAL::MARSHAL12
__TI3?AVCOMM_FAILURE@CORBA@@
__TI3?AVMARSHAL@CORBA@@
??_GNO_MEMORY@CORBA@@UAEPAXI@Z
??_7Object@CORBA@@6B@
??_3Binding@CosNaming@@QAEXAAVMemBufferedStream@@@Z
??_C@_0EI@JFLH@GIOP?3?3SYSTEM_EXCEPTION?5should?5no@
??1Exception@CORBA@@UAE@XZ
__CT??_R0?AVSystemException@CORBA@@@8SystemException::SystemException12
__CTA3?AVMARSHAL@CORBA@@
??1Exception@CORBA@@UAE@XZ
??_R0?AVfatalException@omniORB@@@8
??0SystemException@CORBA@@QAE@ABV01@@Z
??_C@_0O@BHND@_non_existent?$AA@
??_C@_0BK@KMG@IDL?3omg?4org?1CORBA?1UNKNOWN?$AA@
?NP_RepositoryId@SystemException@CORBA@@UBEPBDXZ
??1Exception@CORBA@@UAE@XZ
??1omni_thread@@MAE@XZ
?endl@@YAAAVostream@@AAV1@@Z
__TI3?AVMARSHAL@CORBA@@
??_GObject@CORBA@@UAEPAXI@Z
??_R0?AVINITIALIZE@CORBA@@@8
??1Exception@CORBA@@UAE@XZ
__CT??_R0?AVfatalException@omniORB@@@812
??0SystemException@CORBA@@QAE@ABV01@@Z
?align_and_get_bytes@MemBufferedStream@@AAEPAXW4alignment_t@omni@@I@Z
??_C@_00A@?$AA@
??1SystemException@CORBA@@UAE@XZ
?NP_RepositoryId@SystemException@CORBA@@UBEPBDXZ
??0SystemException@CORBA@@QAE@ABV01@@Z
??4?$_CORBA_Sequence@E@@QAEAAV0@ABV0@@Z
??1NO_MEMORY@CORBA@@UAE@XZ
__CT??_R0?AVINITIALIZE@CORBA@@@8INITIALIZE::INITIALIZE12
??0SystemException@CORBA@@QAE@ABV01@@Z
__CTA1?AVfatalException@omniORB@@
??_C@_00A@?$AA@
??_7TRANSIENT@CORBA@@6B@
?flush@@YAAAVostream@@AAV1@@Z
??1Exception@CORBA@@UAE@XZ
??0SystemException@CORBA@@QAE@ABV01@@Z
__CTA3?AVINITIALIZE@CORBA@@
?length@?$_CORBA_Sequence@UNameComponent@CosNaming@@@@QAEXK@Z
??_GException@CORBA@@UAEPAXI@Z
__TI1?AVfatalException@omniORB@@
??1SystemException@CORBA@@UAE@XZ
??1?$_CORBA_Sequence@UTaggedProfile@IOP@@@@QAE@XZ
__TI3?AVINITIALIZE@CORBA@@
??1SystemException@CORBA@@UAE@XZ
??_GException@CORBA@@UAEPAXI@Z
?NP_RepositoryId@SystemException@CORBA@@UBEPBDXZ
??0SystemException@CORBA@@QAE@ABV01@@Z
??1SystemException@CORBA@@UAE@XZ
?start@omni_thread@@QAEHXZ
??_C@_0BM@IOIF@IDL?3omg?4org?1CORBA?1BAD_PARAM?$AA@
??_GSystemException@CORBA@@UAEPAXI@Z
??1fatalException@omniORB@@QAE@XZ
??0Exception@CORBA@@QAE@ABV01@@Z
??_7UNKNOWN@CORBA@@6B@
??0SystemException@CORBA@@QAE@KW4CompletionStatus@1@@Z
?allocbuf@?$_CORBA_Sequence@UTaggedProfile@IOP@@@@SAPAUTaggedProfile@IOP@@K@Z
??_C@_00A@?$AA@
??1SystemException@CORBA@@UAE@XZ
??_GSystemException@CORBA@@UAEPAXI@Z
??0NotFound@NamingContext@CosNaming@@QAE@ABV012@@Z
?NP_RepositoryId@SystemException@CORBA@@UBEPBDXZ
??1Exception@CORBA@@UAE@XZ
??0NO_MEMORY@CORBA@@QAE@ABV01@@Z
?start_undetached@omni_thread@@IAEHXZ
??_GException@CORBA@@UAEPAXI@Z
??1fatalException@omniORB@@QAE@XZ
?NP_RepositoryId@SystemException@CORBA@@UBEPBDXZ
??_7OBJECT_NOT_EXIST@CORBA@@6B@
??_C@_00A@?$AA@
??1SystemException@CORBA@@UAE@XZ
?NP_RepositoryId@SystemException@CORBA@@UBEPBDXZ
??_GINITIALIZE@CORBA@@UAEPAXI@Z
??1SystemException@CORBA@@UAE@XZ
??_C@_00A@?$AA@
??0SystemException@CORBA@@QAE@ABV01@@Z
?join@omni_thread@@QAEHPAPAX@Z
??0TaggedProfile@IOP@@QAE@XZ
??_C@_00A@?$AA@
??_GSystemException@CORBA@@UAEPAXI@Z
??1Exception@CORBA@@UAE@XZ
?NP_RepositoryId@SystemException@CORBA@@UBEPBDXZ
??_GOBJ_ADAPTER@CORBA@@UAEPAXI@Z
??_GException@CORBA@@UAEPAXI@Z
??_C@_0BM@JPKI@IDL?3omg?4org?1CORBA?1NO_MEMORY?$AA@
??_7SystemException@CORBA@@6B@
??_7Exception@CORBA@@6B@
??_C@_00A@?$AA@
??_GException@CORBA@@UAEPAXI@Z
?_CORBA_bound_check_error@@YAXXZ
?set_priority@omni_thread@@QAEHW4priority_t@1@@Z
??_GException@CORBA@@UAEPAXI@Z
?NP_RepositoryId@SystemException@CORBA@@UBEPBDXZ
??0SystemException@CORBA@@QAE@ABV01@@Z
??_GSystemException@CORBA@@UAEPAXI@Z
??1INITIALIZE@CORBA@@UAE@XZ
?NP_RepositoryId@SystemException@CORBA@@UBEPBDXZ
??1SystemException@CORBA@@UAE@XZ
??_7Exception@CORBA@@6B@
??_7NotFound@NamingContext@CosNaming@@6B@
??_C@_00A@?$AA@
??_GException@CORBA@@UAEPAXI@Z
??_GSystemException@CORBA@@UAEPAXI@Z
?create@omni_thread@@SAPAV1@P6AXPAX@Z0W4priority_t@1@@Z
??1Exception@CORBA@@UAE@XZ
??_GCOMM_FAILURE@CORBA@@UAEPAXI@Z
?endl@@YAAAVostream@@AAV1@@Z
??1OBJ_ADAPTER@CORBA@@UAE@XZ
??_GSystemException@CORBA@@UAEPAXI@Z
??_C@_00A@?$AA@
??_7BAD_PARAM@CORBA@@6B@
??_GException@CORBA@@UAEPAXI@Z
??_GSystemException@CORBA@@UAEPAXI@Z
??_7UserException@CORBA@@6B@
??_C@_0BM@KMBB@IDL?3omg?4org?1CORBA?1IMP_LIMIT?$AA@
??0SystemException@CORBA@@QAE@ABV01@@Z
??1SystemException@CORBA@@UAE@XZ
??_7COMM_FAILURE@CORBA@@6B@
??_GMARSHAL@CORBA@@UAEPAXI@Z
??0Exception@CORBA@@QAE@ABV01@@Z
??_GException@CORBA@@UAEPAXI@Z
?flush@@YAAAVostream@@AAV1@@Z
?NP_RepositoryId@SystemException@CORBA@@UBEPBDXZ
??_R0?AVBAD_PARAM@CORBA@@@8
??_GMARSHAL@CORBA@@UAEPAXI@Z
??_R0?AVTRANSIENT@CORBA@@@8
??1COMM_FAILURE@CORBA@@UAE@XZ
??0Exception@CORBA@@QAE@ABV01@@Z
??_GSystemException@CORBA@@UAEPAXI@Z
??_GINV_OBJREF@CORBA@@UAEPAXI@Z
??_C@_00A@?$AA@
__CT??_R0?AVBAD_PARAM@CORBA@@@8BAD_PARAM::BAD_PARAM12
??0INITIALIZE@CORBA@@QAE@ABV01@@Z
??_GSystemException@CORBA@@UAEPAXI@Z
__CT??_R0?AVTRANSIENT@CORBA@@@8TRANSIENT::TRANSIENT12
??1Exception@CORBA@@UAE@XZ
??4String_member@CORBA@@QAEAAV01@ABV01@@Z
?create@omni_thread@@SAPAV1@P6APAXPAX@Z0W4priority_t@1@@Z
__CTA3?AVBAD_PARAM@CORBA@@
??_GCOMM_FAILURE@CORBA@@UAEPAXI@Z
??1SystemException@CORBA@@UAE@XZ
?NP_RepositoryId@SystemException@CORBA@@UBEPBDXZ
??0OBJ_ADAPTER@CORBA@@QAE@ABV01@@Z
__CTA3?AVTRANSIENT@CORBA@@
??1MARSHAL@CORBA@@UAE@XZ
??_GException@CORBA@@UAEPAXI@Z
__TI3?AVBAD_PARAM@CORBA@@
??_C@_00A@?$AA@
??0SystemException@CORBA@@QAE@ABV01@@Z
??1MARSHAL@CORBA@@UAE@XZ
__TI3?AVTRANSIENT@CORBA@@
??1Exception@CORBA@@UAE@XZ
??_C@_0BP@OACH@IDL?3omg?4org?1CORBA?1COMM_FAILURE?$AA@
??0Exception@CORBA@@QAE@ABV01@@Z
??_GMARSHAL@CORBA@@UAEPAXI@Z
??1INV_OBJREF@CORBA@@UAE@XZ
??_GNO_MEMORY@CORBA@@UAEPAXI@Z
??_GSystemException@CORBA@@UAEPAXI@Z
??_R0?AVCOMM_FAILURE@CORBA@@@8
?boaInit@omni@@SAXAAHPAPADPBD@Z
?create@omni_thread@@SAPAV1@P6APAXPAX@ZH0@Z
??1COMM_FAILURE@CORBA@@UAE@XZ
??_GBAD_PARAM@CORBA@@UAEPAXI@Z
??_GException@CORBA@@UAEPAXI@Z
??1UserException@CORBA@@UAE@XZ
??1hostent_var@LibcWrapper@@QAE@XZ
?NP_RepositoryId@SystemException@CORBA@@UBEPBDXZ
__CT??_R0?AVCOMM_FAILURE@CORBA@@@8COMM_FAILURE::COMM_FAILURE12
??0Exception@CORBA@@QAE@ABV01@@Z
?object_to_string@ORB@CORBA@@QAEPADPAVObject@2@@Z
??_C@_00A@?$AA@
??0Exception@CORBA@@QAE@ABV01@@Z
??0SystemException@CORBA@@QAE@KW4CompletionStatus@1@@Z
__CTA3?AVCOMM_FAILURE@CORBA@@
??1MARSHAL@CORBA@@UAE@XZ
??0Exception@CORBA@@QAE@ABV01@@Z
??_GSystemException@CORBA@@UAEPAXI@Z
??_GtcpSocketStrand@@UAEPAXI@Z
??0MARSHAL@CORBA@@QAE@ABV01@@Z
??_GMARSHAL@CORBA@@UAEPAXI@Z
??_GCOMM_FAILURE@CORBA@@UAEPAXI@Z
__TI3?AVCOMM_FAILURE@CORBA@@
??_C@_0BL@NPNL@Accept?5IIOP?5calls?5on?5port?5?$AA@
?exit@omni_thread@@SAXPAX@Z
??_C@_0BN@LNN@IDL?3omg?4org?1CORBA?1INV_OBJREF?$AA@
??_GException@CORBA@@UAEPAXI@Z
??0Exception@CORBA@@QAE@ABV01@@Z
??1BAD_PARAM@CORBA@@UAE@XZ
??0MARSHAL@CORBA@@QAE@ABV01@@Z
??_GException@CORBA@@UAEPAXI@Z
?string_to_object@ORB@CORBA@@QAEPAVObject@2@PBD@Z
??0INV_OBJREF@CORBA@@QAE@ABV01@@Z
??_R0?AVfatalException@omniORB@@@8
??_C@_05BBMM@TCPIP?$AA@
??0COMM_FAILURE@CORBA@@QAE@ABV01@@Z
??1SystemException@CORBA@@UAE@XZ
__CT??_R0?AVfatalException@omniORB@@@812
??_GSystemException@CORBA@@UAEPAXI@Z
??0Exception@CORBA@@QAE@ABV01@@Z
??0COMM_FAILURE@CORBA@@QAE@ABV01@@Z
??_GMARSHAL@CORBA@@UAEPAXI@Z
??_GUserException@CORBA@@UAEPAXI@Z
??1NO_MEMORY@CORBA@@UAE@XZ
??1COMM_FAILURE@CORBA@@UAE@XZ
__CTA1?AVfatalException@omniORB@@
??_3String_member@CORBA@@QAEXAAVNetBufferedStream@@@Z
??_7tcpSocketEndpoint@@6B@
?_duplicate@ORB@CORBA@@SAPAV12@PAV12@@Z
?self@omni_thread@@SAPAV1@XZ
??0BAD_PARAM@CORBA@@QAE@ABV01@@Z
??0MARSHAL@CORBA@@QAE@ABV01@@Z
__TI1?AVfatalException@omniORB@@
?objectDuplicate@omni@@SAXPAVomniObject@@@Z
??0tcpSocketStrand@@QAE@PAVtcpSocketRope@@IE@Z
??_C@_0CD@EIAL@IDL?3omg?4org?1CORBA?1OBJECT_NOT_EXI@
?NP_RepositoryId@SystemException@CORBA@@UBEPBDXZ
?_nil@ORB@CORBA@@SAPAV12@XZ
??_R0?AVUNKNOWN@CORBA@@@8
??_7Endpoint@@6B@
??_GBAD_PARAM@CORBA@@UAEPAXI@Z
??1MARSHAL@CORBA@@UAE@XZ
??_GNotFound@NamingContext@CosNaming@@UAEPAXI@Z
??0Sync@Strand@@QAE@PAVRope@@EE@Z
??1MARSHAL@CORBA@@UAE@XZ
??_C@_00A@?$AA@
??0Exception@CORBA@@QAE@ABV01@@Z
__CT??_R0?AVUNKNOWN@CORBA@@@8UNKNOWN::UNKNOWN12
?yield@omni_thread@@SAXXZ
?release@CORBA@@SAXPAVORB@1@@Z
?_CORBA_marshal_error@@YAXXZ
__CTA3?AVUNKNOWN@CORBA@@
?put_char_array@NetBufferedStream@@QAEXPBEH@Z
??1tcpSocketStrand@@UAE@XZ
??0COMM_FAILURE@CORBA@@QAE@ABV01@@Z
??0INITIALIZE@CORBA@@QAE@KW4CompletionStatus@1@@Z
?objectRelease@omni@@SAXPAVomniObject@@@Z
__TI3?AVUNKNOWN@CORBA@@
??_GNO_MEMORY@CORBA@@UAEPAXI@Z
??0Exception@CORBA@@QAE@ABV01@@Z
??_2String_member@CORBA@@QBEXAAVMemBufferedStream@@@Z
?is_nil@CORBA@@SAEPAVORB@1@@Z
?sleep@omni_thread@@SAHKK@Z
??_C@_0EI@ONFI@Has?5CORBA?3?3release?$CI?$CJ?5been?5called@
??0NotFound@NamingContext@CosNaming@@QAE@W4NotFoundReason@12@ABV?$_CORBA_Unbounded_Sequence@UNameComponent@CosNaming@@@@@Z
??0Exception@CORBA@@QAE@ABV01@@Z
??_R0?AVException@CORBA@@@8
??_C@_0CA@KBDG@IDL?3omg?4org?1CORBA?1NO_PERMISSION?$AA@
??1Sync@Strand@@QAE@XZ
??_C@_0DO@JPIE@Warning?3?5try?5to?5release?5an?5objec@
??_C@_0CN@BCCJ@tcpSocketStrand?3?3?$HOStrand?$CI?$CJ?5close@
??0MARSHAL@CORBA@@QAE@ABV01@@Z
?resolve_initial_references@ORB@CORBA@@QAEPAVObject@2@PBD@Z
__CT??_R0?AVException@CORBA@@@8Exception::Exception4
?get_time@omni_thread@@SAHPAK0KK@Z
??_7MARSHAL@CORBA@@6B@
??0MARSHAL@CORBA@@QAE@ABV01@@Z
?flush@NetBufferedStream@@QAEXXZ
??_GException@CORBA@@UAEPAXI@Z
?ReplyHeaderSize@GIOP_S@@SAIXZ
??_R0?AVSystemException@CORBA@@@8
??1BAD_PARAM@CORBA@@UAE@XZ
??_R0?AVMARSHAL@CORBA@@@8
?RdLock@Sync@Strand@@IAEXE@Z
?nt_priority@omni_thread@@CAHW4priority_t@1@@Z
__CT??_R0?AVSystemException@CORBA@@@8SystemException::SystemException12
__CT??_R0?AVMARSHAL@CORBA@@@8MARSHAL::MARSHAL12
?reserve@NetBufferedStream@@AAEXI@Z
?endl@@YAAAVostream@@AAV1@@Z
??_3String_member@CORBA@@QAEXAAVMemBufferedStream@@@Z
?list_initial_services@ORB@CORBA@@QAEPAV?$_CORBA_Unbounded_Sequence@VString_member@CORBA@@@@XZ
??_GSystemException@CORBA@@UAEPAXI@Z
?InitialiseReply@GIOP_S@@QAEXW4ReplyStatusType@GIOP@@I@Z
??4NotFound@NamingContext@CosNaming@@QAEAAV012@ABV012@@Z
?endl@@YAAAVostream@@AAV1@@Z
?endl@@YAAAVostream@@AAV1@@Z
__CTA3?AVMARSHAL@CORBA@@
?RdUnlock@Sync@Strand@@IAEXE@Z
?ReceiveReply@GIOP_C@@QAE?AW4ReplyStatusType@GIOP@@XZ
??_R0?AVOBJECT_NOT_EXIST@CORBA@@@8
??_C@_0BL@GKEM@IDL?3omg?4org?1CORBA?1INTERNAL?$AA@
??0NO_MEMORY@CORBA@@QAE@ABV01@@Z
??1NO_MEMORY@CORBA@@UAE@XZ
__TI3?AVMARSHAL@CORBA@@
?flush@@YAAAVostream@@AAV1@@Z
__CT??_R0?AVOBJECT_NOT_EXIST@CORBA@@@8OBJECT_NOT_EXIST::OBJECT_NOT_EXIST12
?flush@@YAAAVostream@@AAV1@@Z
?flush@@YAAAVostream@@AAV1@@Z
??_C@_0DI@JCFM@GIOP_S?3?3InitialiseReply?$CI?$CJ?5entere@
?WrLock@Sync@Strand@@IAEXE@Z
__CTA3?AVOBJECT_NOT_EXIST@CORBA@@
?giveback_reserved@NetBufferedStream@@AAEXE@Z
??_C@_0DM@IKH@GIOP_C?3?3ReceiveReply?$CI?$CJ?5reported?5@
??_GINITIALIZE@CORBA@@UAEPAXI@Z
?NP_alignedSize@NotFound@NamingContext@CosNaming@@QAEII@Z
??_GMARSHAL@CORBA@@UAEPAXI@Z
?disposeObject@omni@@SAXPAVomniObject@@@Z
__TI3?AVOBJECT_NOT_EXIST@CORBA@@
??_C@_0DF@HIH@GIOP_C?3?3ReceiveReply?$CI?$CJ?5entered?5w@
??1Endpoint@@UAE@XZ
?MaxMTU@tcpSocketStrand@@UBEIXZ
?NP_alignedSize@String_member@CORBA@@QBEII@Z
?WrUnlock@Sync@Strand@@IAEXE@Z
?iorToEncapStr@IOP@@SAPAEPBEPBV?$_CORBA_Unbounded_Sequence@UTaggedProfile@IOP@@@@@Z
??0Exception@CORBA@@QAE@ABV01@@Z
??_7MARSHAL@CORBA@@6B@
?receive@NetBufferedStream@@AAEXI@Z
??1?$_CORBA_Sequence@VString_member@CORBA@@@@QAE@XZ
??_2NotFound@NamingContext@CosNaming@@QAEXAAVNetBufferedStream@@@Z
??_C@_0BK@EILI@IDL?3omg?4org?1CORBA?1MARSHAL?$AA@
??_R0?AVMARSHAL@CORBA@@@8
??_GEndpoint@@UAEPAXI@Z
?receive@tcpSocketStrand@@UAE?AUsbuf@Strand@@IEH@Z
??1INITIALIZE@CORBA@@UAE@XZ
?setStrandDying@Sync@Strand@@IAEXXZ
??0BAD_PARAM@CORBA@@QAE@ABV01@@Z
??_7COMM_FAILURE@CORBA@@6B@
??0InvalidName@ORB@CORBA@@QAE@ABV012@@Z
??_3NotFound@NamingContext@CosNaming@@QAEXAAVNetBufferedStream@@@Z
??1MARSHAL@CORBA@@UAE@XZ
__CT??_R0?AVMARSHAL@CORBA@@@8MARSHAL::MARSHAL12
?locateObject@omni@@SAPAVomniObject@@AAUomniObjectKey@@@Z
??_R0?AVCOMM_FAILURE@CORBA@@@8
??1tcpSocketEndpoint@@UAE@XZ
__CTA3?AVMARSHAL@CORBA@@
??0Rope@@QAE@PAVAnchor@@IE@Z
?giveback_received@NetBufferedStream@@AAEXXZ
??_2NotFound@NamingContext@CosNaming@@QAEXAAVMemBufferedStream@@@Z
__CT??_R0?AVCOMM_FAILURE@CORBA@@@8COMM_FAILURE::COMM_FAILURE12
__TI3?AVMARSHAL@CORBA@@
??0Exception@CORBA@@QAE@ABV01@@Z
__CTA3?AVCOMM_FAILURE@CORBA@@
??_7INTERNAL@CORBA@@6B@
??0NO_MEMORY@CORBA@@QAE@ABV01@@Z
??0MARSHAL@CORBA@@QAE@ABV01@@Z
?rewind_inb_mkr@NetBufferedStream@@AAEXH@Z
??_7InvalidName@ORB@CORBA@@6B@
??_C@_0BN@HDCM@IDL?3omg?4org?1CORBA?1INITIALIZE?$AA@
??_3NotFound@NamingContext@CosNaming@@QAEXAAVMemBufferedStream@@@Z
?EncapStrToIor@IOP@@SAXPBEAAPAEAAPAV?$_CORBA_Unbounded_Sequence@UTaggedProfile@IOP@@@@@Z
__TI3?AVCOMM_FAILURE@CORBA@@
??_GtcpSocketEndpoint@@UAEPAXI@Z
??_R0?AVINTERNAL@CORBA@@@8
??_7OBJECT_NOT_EXIST@CORBA@@6B@
??0INITIALIZE@CORBA@@QAE@ABV01@@Z
??_7Rope@@6B@
?rewind_outb_mkr@NetBufferedStream@@AAEXH@Z
??0CannotProceed@NamingContext@CosNaming@@QAE@ABV012@@Z
__CT??_R0?AVINTERNAL@CORBA@@@8INTERNAL::INTERNAL12
??_R0?AVOBJECT_NOT_EXIST@CORBA@@@8
??_7UserException@CORBA@@6B@
__CTA3?AVINTERNAL@CORBA@@
??_GMARSHAL@CORBA@@UAEPAXI@Z
__CT??_R0?AVOBJECT_NOT_EXIST@CORBA@@@8OBJECT_NOT_EXIST::OBJECT_NOT_EXIST12
?getRopeAndKey@omniObject@@QBEEAAVomniRopeAndKey@@@Z
?NP_RepositoryId@UNKNOWN@CORBA@@UBEPBDXZ
?current_outb_alignment@NetBufferedStream@@ABEHXZ
??_GRope@@UAEPAXI@Z
?resolveInitRef@omni@@SAPAVomniObject@@PBD@Z
__TI3?AVINTERNAL@CORBA@@
__CTA3?AVOBJECT_NOT_EXIST@CORBA@@
??1UserException@CORBA@@UAE@XZ
?read_file@initFile@@AAEHPAD@Z
??_C@_0BP@MODG@IDL?3omg?4org?1CORBA?1NO_IMPLEMENT?$AA@
__TI3?AVOBJECT_NOT_EXIST@CORBA@@
?current_inb_alignment@NetBufferedStream@@ABEHXZ
??_7CannotProceed@NamingContext@CosNaming@@6B@
?NP_RepositoryId@BAD_PARAM@CORBA@@UBEPBDXZ
??1Rope@@UAE@XZ
?setRopeAndKey@omniObject@@QAEXABVomniRopeAndKey@@E@Z
??1MARSHAL@CORBA@@UAE@XZ
??_C@_0M@MGAG@NameService?$AA@
??_C@_01LHO@r?$AA@
?ensure_rdlocked@NetBufferedStream@@AAEXXZ
??_GINTERNAL@CORBA@@UAEPAXI@Z
?endl@@YAAAVostream@@AAV1@@Z
??_GOBJECT_NOT_EXIST@CORBA@@UAEPAXI@Z
??_GUserException@CORBA@@UAEPAXI@Z
??_C@_0BE@JNBM@InterfaceRepository?$AA@
?NP_RepositoryId@NO_MEMORY@CORBA@@UBEPBDXZ
??1?$_CORBA_ObjRef_Member@VNamingContext@CosNaming@@VNamingContext_Helper@2@@@QAE@XZ
?CutStrands@Rope@@UAEXE@Z
?align_and_get_bytes@NetBufferedStream@@AAEPAXW4alignment_t@omni@@I@Z
??_C@_0BP@KMNO@IDL?3omg?4org?1CORBA?1BAD_TYPECODE?$AA@
??0MARSHAL@CORBA@@QAE@ABV01@@Z
?flush@@YAAAVostream@@AAV1@@Z
??_7NO_MEMORY@CORBA@@6B@
??_C@_0DM@CLCI@NetBufferedStream?3?3ensure_rdlock@
??_7NamingContext_proxyObjectFactory@CosNaming@@6B@
?NP_RepositoryId@IMP_LIMIT@CORBA@@UBEPBDXZ
??_7INTF_REPOS@CORBA@@6B@
??_GCannotProceed@NamingContext@CosNaming@@UAEPAXI@Z
??1INTERNAL@CORBA@@UAE@XZ
??_R0?AVNO_MEMORY@CORBA@@@8
??1OBJECT_NOT_EXIST@CORBA@@UAE@XZ
??_GInvalidName@ORB@CORBA@@UAEPAXI@Z
??_GCOMM_FAILURE@CORBA@@UAEPAXI@Z
?ensure_wrlocked@NetBufferedStream@@AAEXXZ
??1fatalException@omniORB@@QAE@XZ
__CT??_R0?AVNO_MEMORY@CORBA@@@8NO_MEMORY::NO_MEMORY12
??1?$_CORBA_Sequence@UTaggedProfile@IOP@@@@QAE@XZ
?NP_RepositoryId@COMM_FAILURE@CORBA@@UBEPBDXZ
?getStrand@Rope@@MAEPAVStrand@@XZ
??_7InvalidName@ORB@CORBA@@6B@
??_GNamingContext_proxyObjectFactory@CosNaming@@UAEPAXI@Z
__CTA3?AVNO_MEMORY@CORBA@@
?ReplyCompleted@GIOP_S@@QAEXXZ
??1Exception@CORBA@@UAE@XZ
?length@?$_CORBA_Sequence@UTaggedProfile@IOP@@@@QAEXK@Z
??0INTERNAL@CORBA@@QAE@ABV01@@Z
__TI3?AVNO_MEMORY@CORBA@@
??0OBJECT_NOT_EXIST@CORBA@@QAE@ABV01@@Z
??4InvalidName@ORB@CORBA@@QAEAAV012@ABV012@@Z
??_C@_0DN@PJCK@NetBufferedStream?3?3ensure_wrlock@
??_C@_0CA@PNOJ@IDL?3omg?4org?1CORBA?1BAD_OPERATION?$AA@
??1COMM_FAILURE@CORBA@@UAE@XZ
?NP_RepositoryId@INV_OBJREF@CORBA@@UBEPBDXZ
??0CannotProceed@NamingContext@CosNaming@@QAE@PAV12@ABV?$_CORBA_Unbounded_Sequence@UNameComponent@CosNaming@@@@@Z
??_7UserException@CORBA@@6B@
??0SystemException@CORBA@@QAE@ABV01@@Z
??_C@_0DM@FKMF@GIOP_S?3?3ReplyCompleted?$CI?$CJ?5reporte@
?NP_alignedSize@InvalidName@ORB@CORBA@@QAEII@Z
?incrRefCount@Rope@@QAEXE@Z
?RdLock@NetBufferedStream@@IAEXXZ
?NP_RepositoryId@OBJECT_NOT_EXIST@CORBA@@UBEPBDXZ
??_C@_0DH@HHEO@GIOP_S?3?3ReplyCompleted?$CI?$CJ?5entered@
??_7NO_RESOURCES@CORBA@@6B@
??0TaggedProfile@IOP@@QAE@XZ
?giveback_received@tcpSocketStrand@@UAEXI@Z
??0COMM_FAILURE@CORBA@@QAE@ABV01@@Z
?createObjRef@omni@@SAPAVomniObject@@PBD0PAV?$_CORBA_Unbounded_Sequence@UTaggedProfile@IOP@@@@E@Z
??_2InvalidName@ORB@CORBA@@QAEXAAVNetBufferedStream@@@Z
?decrRefCount@Rope@@QAEXE@Z
?RdUnlock@NetBufferedStream@@IAEXXZ
??_R0?AVUserException@CORBA@@@8
??_GNO_MEMORY@CORBA@@UAEPAXI@Z
??1SystemException@CORBA@@UAE@XZ
?NP_RepositoryId@NO_PERMISSION@CORBA@@UBEPBDXZ
??_C@_0BP@ICGE@IDL?3omg?4org?1CORBA?1NO_RESOURCES?$AA@
??4CannotProceed@NamingContext@CosNaming@@QAEAAV012@ABV012@@Z
__CT??_R0?AVUserException@CORBA@@@8UserException::UserException4
??_3InvalidName@ORB@CORBA@@QAEXAAVNetBufferedStream@@@Z
?is_idle@Rope@@QAEEE@Z
?WrLock@NetBufferedStream@@IAEXXZ
?dispatcher@GIOP_S@@SAXPAVStrand@@@Z
??_R0?AVInvalidName@ORB@CORBA@@@8
?NP_RepositoryId@INTERNAL@CORBA@@UBEPBDXZ
??_3@YAXAAKAAVMemBufferedStream@@@Z
?RequestCompleted@GIOP_C@@QAEXE@Z
??_8AnonymousObject@@7B@
??0Anchor@@QAE@XZ
??_2InvalidName@ORB@CORBA@@QAEXAAVMemBufferedStream@@@Z
?resetRopeAndKey@omniObject@@QAEXXZ
??_7MARSHAL@CORBA@@6B@
__CT??_R0?AVInvalidName@ORB@CORBA@@@8InvalidName::InvalidName4
??1NO_MEMORY@CORBA@@UAE@XZ
?NP_RepositoryId@SystemException@CORBA@@UBEPBDXZ
??_7AnonymousObject@@6BObject@CORBA@@@
?NP_alignedSize@CannotProceed@NamingContext@CosNaming@@QAEII@Z
?WrUnlock@NetBufferedStream@@IAEXXZ
??_R0?AVMARSHAL@CORBA@@@8
?unRead@MemBufferedStream@@QBEIXZ
__CTA3?AVInvalidName@ORB@CORBA@@
?NP_RepositoryId@MARSHAL@CORBA@@UBEPBDXZ
??_3InvalidName@ORB@CORBA@@QAEXAAVMemBufferedStream@@@Z
??_C@_0CA@ONIA@IDL?3CosNaming?1NamingContext?31?40?$AA@
??_C@_0BO@KIBJ@IDL?3omg?4org?1CORBA?1NO_RESPONSE?$AA@
__CT??_R0?AVMARSHAL@CORBA@@@8MARSHAL::MARSHAL12
??_C@_0DO@MLPH@GIOP_C?3?3RequestCompleted?3?5garbag@
??_7AnonymousObject@@6BomniObject@@@
??1Object_var@CORBA@@QAE@XZ
__TI3?AVInvalidName@ORB@CORBA@@
??1Anchor@@QAE@XZ
?skip@NetBufferedStream@@QAEXK@Z
??_2TaggedProfile@IOP@@QAEXAAVNetBufferedStream@@@Z
__CTA3?AVMARSHAL@CORBA@@
??_C@_0DJ@JMCB@GIOP_C?3?3RequestCompleted?$CI?$CJ?5enter@
??_R0?AVNO_RESOURCES@CORBA@@@8
??0NO_MEMORY@CORBA@@QAE@ABV01@@Z
?NP_RepositoryId@INITIALIZE@CORBA@@UBEPBDXZ
??_GException@CORBA@@UAEPAXI@Z
??_2CannotProceed@NamingContext@CosNaming@@QAEXAAVNetBufferedStream@@@Z
__TI3?AVMARSHAL@CORBA@@
?PR_IRRepositoryId@omniObject@@IAEXPBD@Z
__CT??_R0?AVNO_RESOURCES@CORBA@@@8NO_RESOURCES::NO_RESOURCES12
??_7NO_MEMORY@CORBA@@6B@
??_3TaggedProfile@IOP@@QAEXAAVNetBufferedStream@@@Z
__CTA3?AVNO_RESOURCES@CORBA@@
??_GSystemException@CORBA@@UAEPAXI@Z
?NP_RepositoryId@NO_IMPLEMENT@CORBA@@UBEPBDXZ
?IssueLocateRequest@GIOP_C@@QAE?AW4LocateStatusType@GIOP@@PBXI@Z
??0Strand_iterator@@QAE@PBVRope@@E@Z
??_3CannotProceed@NamingContext@CosNaming@@QAEXAAVNetBufferedStream@@@Z
??_GMARSHAL@CORBA@@UAEPAXI@Z
?WrMessageAlreadyWritten@NetBufferedStream@@QBEIXZ
??_C@_0CA@CDI@IDL?3omg?4org?1CORBA?1PERSIST_STORE?$AA@
__TI3?AVNO_RESOURCES@CORBA@@
?getnextentry@initFile@@AAEHAAPAD0@Z
??_7MARSHAL@CORBA@@6B@
??_R0?AVINTF_REPOS@CORBA@@@8
??1Strand_iterator@@QAE@XZ
?NP_RepositoryId@BAD_TYPECODE@CORBA@@UBEPBDXZ
??_C@_0FH@HOOI@omniObject?3?3PR_IRRepositoryId?$CI?$CJ?9@
??_R0?AVNO_MEMORY@CORBA@@@8
?WrMessageSpaceLeft@NetBufferedStream@@QBEIXZ
?align_and_get_bytes@NetBufferedStream@@AAEPAXW4alignment_t@omni@@I@Z
??_C@_0DL@MENK@GIOP_C?3?3IssueLocateRequest?$CI?$CJ?5ent@
__CT??_R0?AVINTF_REPOS@CORBA@@@8INTF_REPOS::INTF_REPOS12
??_GUNKNOWN@CORBA@@UAEPAXI@Z
??_2CannotProceed@NamingContext@CosNaming@@QAEXAAVMemBufferedStream@@@Z
??_R0?AVfatalException@omniORB@@@8
__CT??_R0?AVNO_MEMORY@CORBA@@@8NO_MEMORY::NO_MEMORY12
??1MARSHAL@CORBA@@UAE@XZ
??_C@_0DB@NOKD@Configuration?5error?3?5Parse?5error@
??RStrand_iterator@@QAEPAVStrand@@XZ
__CTA3?AVINTF_REPOS@CORBA@@
?NP_RepositoryId@BAD_OPERATION@CORBA@@UBEPBDXZ
?RdMessageAlreadyRead@NetBufferedStream@@QBEIXZ
__CT??_R0?AVfatalException@omniORB@@@812
??_2TaggedProfile@IOP@@QAEXAAVMemBufferedStream@@@Z
__CTA3?AVNO_MEMORY@CORBA@@
?HandleRequest@GIOP_S@@AAEXE@Z
??_C@_0BI@OKIN@?5in?5configuration?5file?4?$AA@
__TI3?AVINTF_REPOS@CORBA@@
??_3CannotProceed@NamingContext@CosNaming@@QAEXAAVMemBufferedStream@@@Z
??_C@_0CA@KMJD@IDL?3omg?4org?1CORBA?1BAD_INV_ORDER?$AA@
__CTA1?AVfatalException@omniORB@@
__TI3?AVNO_MEMORY@CORBA@@
??0Rope_iterator@@QAE@PBVAnchor@@@Z
??_R0?AVDATA_CONVERSION@CORBA@@@8
??_C@_0CO@NAIA@Configuration?5error?3?5No?5data?5fou@
?RdMessageUnRead@NetBufferedStream@@QBEIXZ
??_3TaggedProfile@IOP@@QAEXAAVMemBufferedStream@@@Z
??_GCOMM_FAILURE@CORBA@@UAEPAXI@Z
?NP_RepositoryId@NO_RESOURCES@CORBA@@UBEPBDXZ
__TI1?AVfatalException@omniORB@@
??_R0?AVMARSHAL@CORBA@@@8
??_R0?AVOBJ_ADAPTER@CORBA@@@8
??0MARSHAL@CORBA@@QAE@ABV01@@Z
?UnMarshallSystemException@GIOP_C@@AAEXXZ
??0InvalidName@NamingContext@CosNaming@@QAE@ABV012@@Z
??1Rope_iterator@@QAE@XZ
__CT??_R0?AVMARSHAL@CORBA@@@8MARSHAL::MARSHAL12
?WrMessageSize@NetBufferedStream@@IAEXI@Z
?align_and_get_bytes@MemBufferedStream@@AAEPAXW4alignment_t@omni@@I@Z
??_R0?AVBAD_CONTEXT@CORBA@@@8
?NP_RepositoryId@NO_RESPONSE@CORBA@@UBEPBDXZ
??1UserException@CORBA@@UAE@XZ
__CTA3?AVMARSHAL@CORBA@@
??1fatalException@omniORB@@QAE@XZ
??_R0?AVINTF_REPOS@CORBA@@@8
??RRope_iterator@@QAEPAVRope@@XZ
??_GOBJECT_NOT_EXIST@CORBA@@UAEPAXI@Z
?RdMessageSize@NetBufferedStream@@IAEXIE@Z
__TI3?AVMARSHAL@CORBA@@
??_C@_0BM@PAOG@IDL?3omg?4org?1CORBA?1TRANSIENT?$AA@
??_R0?AVINV_FLAG@CORBA@@@8
?max_receive_buffer_size@tcpSocketStrand@@UAEIXZ
?NP_RepositoryId@PERSIST_STORE@CORBA@@UBEPBDXZ
?dispatch@omniObject@@UAEEAAVGIOP_S@@PBDE@Z
??_7InvalidName@NamingContext@CosNaming@@6B@
??_7INTF_REPOS@CORBA@@6B@
??_R0?AVINV_IDENT@CORBA@@@8
?getRegistryEntry@initFile@@AAEHAAPAD0@Z
??0UserException@CORBA@@QAE@ABV01@@Z
??_R0?AVFREE_MEM@CORBA@@@8
?receive_and_copy@tcpSocketStrand@@UAEXUsbuf@Strand@@@Z
??_GTRANSIENT@CORBA@@UAEPAXI@Z
?NP_RepositoryId@BAD_INV_ORDER@CORBA@@UBEPBDXZ
??_GInvalidName@NamingContext@CosNaming@@UAEPAXI@Z
??_C@_0FK@MCNA@Warning?3?5received?5GIOP?5request?5?9@
??_R0?AVTRANSIENT@CORBA@@@8
??_7INV_FLAG@CORBA@@6B@
??_C@_0BM@JGM@?5is?5not?5a?5character?5string?4?$AA@
??_C@_0BA@BDFN@_implementation?$AA@
??_R0?AVBAD_INV_ORDER@CORBA@@@8
??_C@_0BL@KHHO@IDL?3omg?4org?1CORBA?1FREE_MEM?$AA@
?NP_RepositoryId@TRANSIENT@CORBA@@UBEPBDXZ
??1InvalidName@ORB@CORBA@@UAE@XZ
??_C@_0CF@NPEP@Configuration?5error?3?5Data?5for?5va@
??_C@_0CL@MGN@?5?5?5?5?5?5?5?5?5A?5CORBA?3?3BAD_OPERATION?5@
??_R0?AVPERSIST_STORE@CORBA@@@8
??1UNKNOWN@CORBA@@UAE@XZ
??_7INV_IDENT@CORBA@@6B@
??4InvalidName@NamingContext@CosNaming@@QAEAAV012@ABV012@@Z
??_C@_0FF@OIHH@Warning?3?5received?5GIOP?5request?5?9@
??_R0?AVNO_RESPONSE@CORBA@@@8
?skip@tcpSocketStrand@@UAEXI@Z
?NP_RepositoryId@FREE_MEM@CORBA@@UBEPBDXZ
??_C@_0L@FKLF@_interface?$AA@
??_R0?AVNO_RESOURCES@CORBA@@@8
?NP_alignedSize@InvalidName@NamingContext@CosNaming@@QAEII@Z
??_GNO_RESOURCES@CORBA@@UAEPAXI@Z
??_C@_0O@BHND@_non_existent?$AA@
??_7FREE_MEM@CORBA@@6B@
??_R0?AVBAD_TYPECODE@CORBA@@@8
?fetch@tcpSocketStrand@@AAEXK@Z
??1COMM_FAILURE@CORBA@@UAE@XZ
?NP_RepositoryId@INV_IDENT@CORBA@@UBEPBDXZ
??_C@_0BM@NIMF@IDL?3omg?4org?1CORBA?1INV_IDENT?$AA@
??_C@_05MCEA@_is_a?$AA@
??_R0?AVNO_IMPLEMENT@CORBA@@@8
??_2InvalidName@NamingContext@CosNaming@@QAEXAAVNetBufferedStream@@@Z
??_C@_0FA@BPNG@omniObject?3?3dispatch?$CI?$CJ?9?5unexpect@
??_R0?AVINITIALIZE@CORBA@@@8
??_7INITIALIZE@CORBA@@6B@
?NP_RepositoryId@INV_FLAG@CORBA@@UBEPBDXZ
??_GINTF_REPOS@CORBA@@UAEPAXI@Z
??4?$_CORBA_Sequence@E@@QAEAAV0@ABV0@@Z
??_3InvalidName@NamingContext@CosNaming@@QAEXAAVNetBufferedStream@@@Z
??_R0?AVINTERNAL@CORBA@@@8
??1OBJECT_NOT_EXIST@CORBA@@UAE@XZ
?reserve@tcpSocketStrand@@UAE?AUsbuf@Strand@@IEHE@Z
??_R0?AVNO_PERMISSION@CORBA@@@8
??_7MARSHAL@CORBA@@6B@
??1?$_CORBA_Sequence@UTaggedProfile@IOP@@@@QAE@XZ
??_2InvalidName@NamingContext@CosNaming@@QAEXAAVMemBufferedStream@@@Z
?NP_RepositoryId@INTF_REPOS@CORBA@@UBEPBDXZ
??_7TRANSIENT@CORBA@@6B@
??_C@_0BL@MNHM@IDL?3omg?4org?1CORBA?1INV_FLAG?$AA@
??_R0?AVINV_OBJREF@CORBA@@@8
??_GUserException@CORBA@@UAEPAXI@Z
?allocbuf@?$_CORBA_Sequence@UTaggedProfile@IOP@@@@SAPAUTaggedProfile@IOP@@K@Z
??_R0?AVIMP_LIMIT@CORBA@@@8
??_3InvalidName@NamingContext@CosNaming@@QAEXAAVMemBufferedStream@@@Z
??1TRANSIENT@CORBA@@UAE@XZ
?NP_RepositoryId@BAD_CONTEXT@CORBA@@UBEPBDXZ
??_7BAD_OPERATION@CORBA@@6B@
??_7NO_MEMORY@CORBA@@6B@
??_R0?AVBAD_PARAM@CORBA@@@8
??_R0?AVMARSHAL@CORBA@@@8
??0AlreadyBound@NamingContext@CosNaming@@QAE@ABV012@@Z
?giveback_reserved@tcpSocketStrand@@UAEXIE@Z
??_R0?AVUNKNOWN@CORBA@@@8
?NP_RepositoryId@OBJ_ADAPTER@CORBA@@UBEPBDXZ
__CT??_R0?AVMARSHAL@CORBA@@@8MARSHAL::MARSHAL12
??_GInvalidName@ORB@CORBA@@UAEPAXI@Z
??_R0?AVOBJECT_NOT_EXIST@CORBA@@@8
??_C@_0BN@DFAM@IDL?3omg?4org?1CORBA?1INTF_REPOS?$AA@
??_7BAD_INV_ORDER@CORBA@@6B@
??0TaggedProfile@IOP@@QAE@XZ
??0Exception@CORBA@@QAE@ABV01@@Z
__CTA3?AVMARSHAL@CORBA@@
?NP_RepositoryId@DATA_CONVERSION@CORBA@@UBEPBDXZ
__TI3?AVMARSHAL@CORBA@@
??0OBJECT_NOT_EXIST@CORBA@@QAE@ABV01@@Z
??_7AlreadyBound@NamingContext@CosNaming@@6B@
?reserve_and_copy@tcpSocketStrand@@UAEXUsbuf@Strand@@E@Z
??_7BAD_PARAM@CORBA@@6B@
??1NO_RESOURCES@CORBA@@UAE@XZ
??_R0?AVBAD_OPERATION@CORBA@@@8
__CT??_R0?AVBAD_OPERATION@CORBA@@@8BAD_OPERATION::BAD_OPERATION12
??1Object@CORBA@@UAE@XZ
??_GAlreadyBound@NamingContext@CosNaming@@UAEPAXI@Z
??_C@_0BO@CPOH@IDL?3omg?4org?1CORBA?1BAD_CONTEXT?$AA@
__CTA3?AVBAD_OPERATION@CORBA@@
??_7NO_MEMORY@CORBA@@6B@
??_7INTERNAL@CORBA@@6B@
??0UNKNOWN@CORBA@@QAE@ABV01@@Z
??1INTF_REPOS@CORBA@@UAE@XZ
__TI3?AVBAD_OPERATION@CORBA@@
??_7Object@CORBA@@6B@
?max_reserve_buffer_size@tcpSocketStrand@@UAEIXZ
??_7UNKNOWN@CORBA@@6B@
??4AlreadyBound@NamingContext@CosNaming@@QAEAAV012@ABV012@@Z
??_7PERSIST_STORE@CORBA@@6B@
??_GNO_MEMORY@CORBA@@UAEPAXI@Z
?transmit@tcpSocketStrand@@AAEXXZ
??0INTF_REPOS@CORBA@@QAE@ABV01@@Z
??0COMM_FAILURE@CORBA@@QAE@ABV01@@Z
?NP_alignedSize@AlreadyBound@NamingContext@CosNaming@@QAEII@Z
??_C@_0BO@JBDP@IDL?3omg?4org?1CORBA?1OBJ_ADAPTER?$AA@
??_7BAD_OPERATION@CORBA@@6B@
??_7UNKNOWN@CORBA@@6B@
??_R0?AVNO_MEMORY@CORBA@@@8
??_GMARSHAL@CORBA@@UAEPAXI@Z
??_2AlreadyBound@NamingContext@CosNaming@@QAEXAAVNetBufferedStream@@@Z
__CT??_R0?AVNO_MEMORY@CORBA@@@8NO_MEMORY::NO_MEMORY12
??_7NO_PERMISSION@CORBA@@6B@
??0NO_RESOURCES@CORBA@@QAE@ABV01@@Z
??0TRANSIENT@CORBA@@QAE@ABV01@@Z
??_3AlreadyBound@NamingContext@CosNaming@@QAEXAAVNetBufferedStream@@@Z
?shutdown@tcpSocketStrand@@UAEXXZ
__CTA3?AVNO_MEMORY@CORBA@@
??_C@_0CC@JHEG@IDL?3omg?4org?1CORBA?1DATA_CONVERSIO@
??_GObject@CORBA@@UAEPAXI@Z
__TI3?AVNO_MEMORY@CORBA@@
??_2AlreadyBound@NamingContext@CosNaming@@QAEXAAVMemBufferedStream@@@Z
??_7NO_RESPONSE@CORBA@@6B@
??0tcpSocketRendezvous@@QAE@PAVtcpSocketRope@@PAVtcpSocketEndpoint@@@Z
??_R0?AVBAD_OPERATION@CORBA@@@8
??1NO_MEMORY@CORBA@@UAE@XZ
?listInitServices@omni@@SAKAAPAPAD@Z
__CT??_R0?AVBAD_OPERATION@CORBA@@@8BAD_OPERATION::BAD_OPERATION12
?_get_implementation@Object@CORBA@@QAEPAVImplementationDef@2@XZ
??_3AlreadyBound@NamingContext@CosNaming@@QAEXAAVMemBufferedStream@@@Z
?endl@@YAAAVostream@@AAV1@@Z
__CTA3?AVBAD_OPERATION@CORBA@@
??_7OBJECT_NOT_EXIST@CORBA@@6B@
??_C@_0M@IBML@?$CFd?4?$CFd?4?$CFd?4?$CFd?$AA@
?iopProfilesToRope@omni@@SAPAVRope@@PBV?$_CORBA_Unbounded_Sequence@UTaggedProfile@IOP@@@@AAPAEAAI@Z
??0NotEmpty@NamingContext@CosNaming@@QAE@ABV012@@Z
__TI3?AVBAD_OPERATION@CORBA@@
?flush@@YAAAVostream@@AAV1@@Z
??_C@_0CE@CGEM@Cannot?5get?5the?5address?5of?5this?5h@
??_C@_0EC@KKFK@CORBA?3?3Object?3?3_get_implementati@
??1MARSHAL@CORBA@@UAE@XZ
??_7NO_RESOURCES@CORBA@@6B@
?_get_interface@Object@CORBA@@QAEPAVInterfaceDef@2@XZ
?align_and_get_bytes@NetBufferedStream@@AAEPAXW4alignment_t@omni@@I@Z
??_C@_0CB@KOJE@Cannot?5get?5the?5name?5of?5this?5host@
??_7NotEmpty@NamingContext@CosNaming@@6B@
??_7NO_MEMORY@CORBA@@6B@
??1proxyObjectFactory_iterator@@QAE@XZ
??_7DATA_CONVERSION@CORBA@@6B@
??1String_var@CORBA@@QAE@XZ
??_7tcpSocketRendezvous@@6B@
??_C@_0DN@INBN@CORBA?3?3Object?3?3_get_interface?$CI?$CJ?5@
??_GNotEmpty@NamingContext@CosNaming@@UAEPAXI@Z
??_R0?AVfatalException@omniORB@@@8
??0MARSHAL@CORBA@@QAE@ABV01@@Z
??_7INV_OBJREF@CORBA@@6B@
??_GMARSHAL@CORBA@@UAEPAXI@Z
?NP_alignedSize@Object@CORBA@@SAIPAV12@I@Z
??_7BAD_OPERATION@CORBA@@6B@
__CT??_R0?AVfatalException@omniORB@@@812
??_R0?AVNO_MEMORY@CORBA@@@8
__CTA1?AVfatalException@omniORB@@
__CT??_R0?AVNO_MEMORY@CORBA@@@8NO_MEMORY::NO_MEMORY12
?marshalObjRef@Object@CORBA@@SAXPAV12@AAVNetBufferedStream@@@Z
??4NotEmpty@NamingContext@CosNaming@@QAEAAV012@ABV012@@Z
__TI1?AVfatalException@omniORB@@
??_7OBJ_ADAPTER@CORBA@@6B@
__CTA3?AVNO_MEMORY@CORBA@@
??0NO_MEMORY@CORBA@@QAE@ABV01@@Z
??_GBAD_OPERATION@CORBA@@UAEPAXI@Z
__TI3?AVNO_MEMORY@CORBA@@
?NP_alignedSize@NotEmpty@NamingContext@CosNaming@@QAEII@Z
?unmarshalObjRef@Object@CORBA@@SAPAV12@AAVNetBufferedStream@@@Z
??_R0?AVINV_OBJREF@CORBA@@@8
??_7BAD_TYPECODE@CORBA@@6B@
??_2NotEmpty@NamingContext@CosNaming@@QAEXAAVNetBufferedStream@@@Z
__CT??_R0?AVINV_OBJREF@CORBA@@@8INV_OBJREF::INV_OBJREF12
??1MARSHAL@CORBA@@UAE@XZ
?objectToString@omni@@SAPADPBVomniObject@@@Z
?marshalObjRef@Object@CORBA@@SAXPAV12@AAVMemBufferedStream@@@Z
__CTA3?AVINV_OBJREF@CORBA@@
??_3NotEmpty@NamingContext@CosNaming@@QAEXAAVNetBufferedStream@@@Z
??_7BAD_CONTEXT@CORBA@@6B@
__TI3?AVINV_OBJREF@CORBA@@
?unmarshalObjRef@Object@CORBA@@SAPAV12@AAVMemBufferedStream@@@Z
??_2NotEmpty@NamingContext@CosNaming@@QAEXAAVMemBufferedStream@@@Z
??1BAD_OPERATION@CORBA@@UAE@XZ
??_7NO_IMPLEMENT@CORBA@@6B@
??1?$_CORBA_Unbounded_Sequence@UTaggedProfile@IOP@@@@QAE@XZ
?_nil@Object_Helper@CORBA@@SAPAVObject@2@XZ
??_3NotEmpty@NamingContext@CosNaming@@QAEXAAVMemBufferedStream@@@Z
??1fatalException@omniORB@@QAE@XZ
?is_nil@Object_Helper@CORBA@@SAEPAVObject@2@@Z
??_7INV_OBJREF@CORBA@@6B@
??0BAD_OPERATION@CORBA@@QAE@ABV01@@Z
?bind@_proxy_NamingContext@CosNaming@@UAEXABV?$_CORBA_Unbounded_Sequence@UNameComponent@CosNaming@@@@PAVObject@CORBA@@@Z
??_GtcpSocketRendezvous@@UAEPAXI@Z
?stringToObject@omni@@SAPAVomniObject@@PBD@Z
?release@Object_Helper@CORBA@@SAXPAVObject@2@@Z
??0tcpSocketRendezvous@@QAE@PAVtcpSocketRope@@I@Z
??_7IMP_LIMIT@CORBA@@6B@
?duplicate@Object_Helper@CORBA@@SAXPAVObject@2@@Z
??_C@_0CH@GNLH@GIOP?3?3LOCATION_FORWARD?3?5retry?5re@
??_R0?AVDATA_CONVERSION@CORBA@@@8
??0MARSHAL@CORBA@@QAE@ABV01@@Z
??1tcpSocketRendezvous@@UAE@XZ
??_C@_0EO@GHJM@Received?5GIOP?3?3LOCATION_FORWARD?5@
__CT??_R0?AVDATA_CONVERSION@CORBA@@@8DATA_CONVERSION::DATA_CONVERSION12
?NP_alignedSize@Object_Helper@CORBA@@SAIPAVObject@2@I@Z
??_GNO_MEMORY@CORBA@@UAEPAXI@Z
__CTA3?AVDATA_CONVERSION@CORBA@@
?accept@tcpSocketRendezvous@@QAEPAVtcpSocketStrand@@XZ
?_widenFromTheMostDerivedIntf@omniObject@@UAEPAXPBD@Z
??_C@_0EI@JFLH@GIOP?3?3SYSTEM_EXCEPTION?5should?5no@
__TI3?AVDATA_CONVERSION@CORBA@@
?marshalObjRef@Object_Helper@CORBA@@SAXPAVObject@2@AAVNetBufferedStream@@@Z
?assertObjectExistent@omniObject@@QAEXXZ
??_C@_0CN@EMKL@IDL?3CosNaming?1NamingContext?1Alre@
??_R0?AVOBJ_ADAPTER@CORBA@@@8
?objectRef_init@@YAXXZ
??_GINV_OBJREF@CORBA@@UAEPAXI@Z
?unmarshalObjRef@Object_Helper@CORBA@@SAPAVObject@2@AAVNetBufferedStream@@@Z
??_C@_0CM@HBHA@IDL?3CosNaming?1NamingContext?1Inva@
__CT??_R0?AVOBJ_ADAPTER@CORBA@@@8OBJ_ADAPTER::OBJ_ADAPTER12
??_C@_0CO@CIOA@IDL?3CosNaming?1NamingContext?1Cann@
__CTA3?AVOBJ_ADAPTER@CORBA@@
?UnMarshalObjRef@CORBA@@SAPAVObject@1@PBDAAVNetBufferedStream@@@Z
??_GUNKNOWN@CORBA@@UAEPAXI@Z
??_C@_0CF@LGFA@GIOP?3?3OBJECT_FORWARD?3?5retry?5requ@
??_7NO_MEMORY@CORBA@@6B@
?marshalObjRef@Object_Helper@CORBA@@SAXPAVObject@2@AAVMemBufferedStream@@@Z
??_C@_0CJ@HHBE@IDL?3CosNaming?1NamingContext?1NotF@
__TI3?AVOBJ_ADAPTER@CORBA@@
??_C@_0FL@NPOH@Received?5GIOP?3?3OBJECT_FORWARD?5in@
??_R0?AVNO_MEMORY@CORBA@@@8
??1NO_MEMORY@CORBA@@UAE@XZ
??_C@_04FBJP@bind?$AA@
??_R0?AVBAD_CONTEXT@CORBA@@@8
?unmarshalObjRef@Object_Helper@CORBA@@SAPAVObject@2@AAVMemBufferedStream@@@Z
__CT??_R0?AVNO_MEMORY@CORBA@@@8NO_MEMORY::NO_MEMORY12
__CT??_R0?AVBAD_CONTEXT@CORBA@@@8BAD_CONTEXT::BAD_CONTEXT12
??_GNO_MEMORY@CORBA@@UAEPAXI@Z
__CTA3?AVNO_MEMORY@CORBA@@
??_7TRANSIENT@CORBA@@6B@
??0Object_var@CORBA@@QAE@ABVObject_member@1@@Z
__CTA3?AVBAD_CONTEXT@CORBA@@
??_7MARSHAL@CORBA@@6B@
__TI3?AVNO_MEMORY@CORBA@@
??1INV_OBJREF@CORBA@@UAE@XZ
__TI3?AVBAD_CONTEXT@CORBA@@
??4Object_var@CORBA@@QAEAAV01@ABVObject_member@1@@Z
??_R0?AVINTF_REPOS@CORBA@@@8
??_7OBJECT_NOT_EXIST@CORBA@@6B@
??_GBAD_OPERATION@CORBA@@UAEPAXI@Z
??_7TRANSIENT@CORBA@@6B@
__CT??_R0?AVINTF_REPOS@CORBA@@@8INTF_REPOS::INTF_REPOS12
??1ProfileBody@IIOP@@QAE@XZ
__CTA3?AVINTF_REPOS@CORBA@@
??_7COMM_FAILURE@CORBA@@6B@
??_7COMM_FAILURE@CORBA@@6B@
__TI3?AVINTF_REPOS@CORBA@@
??1UNKNOWN@CORBA@@UAE@XZ
??_R0?AVTRANSIENT@CORBA@@@8
??_GNO_MEMORY@CORBA@@UAEPAXI@Z
??_3@YAXAAKAAVNetBufferedStream@@@Z
??_R0?AVINV_FLAG@CORBA@@@8
__CT??_R0?AVTRANSIENT@CORBA@@@8TRANSIENT::TRANSIENT12
??0INV_OBJREF@CORBA@@QAE@ABV01@@Z
??_7SystemException@CORBA@@6B@
__CT??_R0?AVINV_FLAG@CORBA@@@8INV_FLAG::INV_FLAG12
__CTA3?AVTRANSIENT@CORBA@@
?align_and_get_bytes@NetBufferedStream@@AAEPAXW4alignment_t@omni@@I@Z
??_R0?AVTRANSIENT@CORBA@@@8
__CTA3?AVINV_FLAG@CORBA@@
??1NO_MEMORY@CORBA@@UAE@XZ
__TI3?AVTRANSIENT@CORBA@@
??1NO_MEMORY@CORBA@@UAE@XZ
__CT??_R0?AVTRANSIENT@CORBA@@@8TRANSIENT::TRANSIENT12
__TI3?AVINV_FLAG@CORBA@@
??_R0?AVCOMM_FAILURE@CORBA@@@8
??0SystemException@CORBA@@QAE@KW4CompletionStatus@1@@Z
__CTA3?AVTRANSIENT@CORBA@@
??_R0?AVINV_IDENT@CORBA@@@8
??0NO_MEMORY@CORBA@@QAE@ABV01@@Z
__CT??_R0?AVCOMM_FAILURE@CORBA@@@8COMM_FAILURE::COMM_FAILURE12
__TI3?AVTRANSIENT@CORBA@@
__CT??_R0?AVINV_IDENT@CORBA@@@8INV_IDENT::INV_IDENT12
??1BAD_OPERATION@CORBA@@UAE@XZ
__CTA3?AVCOMM_FAILURE@CORBA@@
??0NO_MEMORY@CORBA@@QAE@ABV01@@Z
??_R0?AVCOMM_FAILURE@CORBA@@@8
__CTA3?AVINV_IDENT@CORBA@@
__TI3?AVCOMM_FAILURE@CORBA@@
?MarshalObjRef@CORBA@@SAXPAVObject@1@PBDIAAVNetBufferedStream@@@Z
__CT??_R0?AVCOMM_FAILURE@CORBA@@@8COMM_FAILURE::COMM_FAILURE12
__TI3?AVINV_IDENT@CORBA@@
?objectToIopProfiles@omni@@SAPAV?$_CORBA_Unbounded_Sequence@UTaggedProfile@IOP@@@@PAVomniObject@@@Z
??_R0?AVOBJECT_NOT_EXIST@CORBA@@@8
__CTA3?AVCOMM_FAILURE@CORBA@@
??_R0?AVFREE_MEM@CORBA@@@8
??0BAD_OPERATION@CORBA@@QAE@ABV01@@Z
__CT??_R0?AVOBJECT_NOT_EXIST@CORBA@@@8OBJECT_NOT_EXIST::OBJECT_NOT_EXIST12
??0tcpSocketRope@@QAE@PAVAnchor@@IPAVEndpoint@@EE@Z
__TI3?AVCOMM_FAILURE@CORBA@@
__CT??_R0?AVFREE_MEM@CORBA@@@8FREE_MEM::FREE_MEM12
__CTA3?AVOBJECT_NOT_EXIST@CORBA@@
?AlignedObjRef@CORBA@@SAIPAVObject@1@PBDII@Z
??_R0?AVfatalException@omniORB@@@8
__CTA3?AVFREE_MEM@CORBA@@
__TI3?AVOBJECT_NOT_EXIST@CORBA@@
__CT??_R0?AVfatalException@omniORB@@@812
__TI3?AVFREE_MEM@CORBA@@
??_C@_05BBMM@TCPIP?$AA@
?UnMarshalObjRef@CORBA@@SAPAVObject@1@PBDAAVMemBufferedStream@@@Z
??0NO_MEMORY@CORBA@@QAE@ABV01@@Z
__CTA1?AVfatalException@omniORB@@
??_R0?AVTRANSIENT@CORBA@@@8
__TI1?AVfatalException@omniORB@@
__CT??_R0?AVTRANSIENT@CORBA@@@8TRANSIENT::TRANSIENT12
??_7tcpSocketEndpoint@@6B@
??_R0?AVAlreadyBound@NamingContext@CosNaming@@@8
__CTA3?AVTRANSIENT@CORBA@@
__CT??_R0?AVAlreadyBound@NamingContext@CosNaming@@@8AlreadyBound::AlreadyBound4
?HandleLocateRequest@GIOP_S@@AAEXE@Z
__TI3?AVTRANSIENT@CORBA@@
??_7tcpSocketRope@@6B@
__CTA3?AVAlreadyBound@NamingContext@CosNaming@@
??_R0?AVBAD_INV_ORDER@CORBA@@@8
??1?$_CORBA_Sequence@UTaggedProfile@IOP@@@@QAE@XZ
__TI3?AVAlreadyBound@NamingContext@CosNaming@@
__CT??_R0?AVBAD_INV_ORDER@CORBA@@@8BAD_INV_ORDER::BAD_INV_ORDER12
??_7Endpoint@@6B@
??_R0?AVInvalidName@NamingContext@CosNaming@@@8
__CTA3?AVBAD_INV_ORDER@CORBA@@
?allocbuf@?$_CORBA_Sequence@UTaggedProfile@IOP@@@@SAPAUTaggedProfile@IOP@@K@Z
??1omniRopeAndKey@@QAE@XZ
__CT??_R0?AVInvalidName@NamingContext@CosNaming@@@8InvalidName::InvalidName4
__TI3?AVBAD_INV_ORDER@CORBA@@
??_3@YAXAAKAAVMemBufferedStream@@@Z
__CTA3?AVInvalidName@NamingContext@CosNaming@@
??1Object_var@CORBA@@QAE@XZ
??_R0?AVPERSIST_STORE@CORBA@@@8
__TI3?AVInvalidName@NamingContext@CosNaming@@
__CT??_R0?AVPERSIST_STORE@CORBA@@@8PERSIST_STORE::PERSIST_STORE12
?align_and_get_bytes@MemBufferedStream@@AAEPAXW4alignment_t@omni@@I@Z
?align_and_get_bytes@NetBufferedStream@@AAEPAXW4alignment_t@omni@@I@Z
??4TaggedProfile@IOP@@QAEAAU01@ABU01@@Z
??_R0?AVCannotProceed@NamingContext@CosNaming@@@8
??_GCOMM_FAILURE@CORBA@@UAEPAXI@Z
__CTA3?AVPERSIST_STORE@CORBA@@
??1Endpoint@@UAE@XZ
?MarshalObjRef@CORBA@@SAXPAVObject@1@PBDIAAVMemBufferedStream@@@Z
__CT??_R0?AVCannotProceed@NamingContext@CosNaming@@@8CannotProceed::CannotProceed24
?HandleCancelRequest@GIOP_S@@AAEXE@Z
__TI3?AVPERSIST_STORE@CORBA@@
??0TaggedProfile@IOP@@QAE@XZ
__CTA3?AVCannotProceed@NamingContext@CosNaming@@
??_GEndpoint@@UAEPAXI@Z
??_R0?AVNO_RESPONSE@CORBA@@@8
__TI3?AVCannotProceed@NamingContext@CosNaming@@
??_GOBJECT_NOT_EXIST@CORBA@@UAEPAXI@Z
__CT??_R0?AVNO_RESPONSE@CORBA@@@8NO_RESPONSE::NO_RESPONSE12
??_3?$_CORBA_Sequence@UTaggedProfile@IOP@@@@QAEXAAVMemBufferedStream@@@Z
??_GtcpSocketEndpoint@@UAEPAXI@Z
??_R0?AVUserException@CORBA@@@8
__CTA3?AVNO_RESPONSE@CORBA@@
?HandleMessageError@GIOP_S@@AAEXXZ
??1omniRopeAndKey@@QAE@XZ
__CT??_R0?AVUserException@CORBA@@@8UserException::UserException4
__TI3?AVNO_RESPONSE@CORBA@@
??_R0?AVNotFound@NamingContext@CosNaming@@@8
?HandleCloseConnection@GIOP_S@@AAEXXZ
??_GTRANSIENT@CORBA@@UAEPAXI@Z
??_R0?AVNO_RESOURCES@CORBA@@@8
?orbIsReady@omni@@SAXXZ
??_GtcpSocketRope@@UAEPAXI@Z
__CT??_R0?AVNotFound@NamingContext@CosNaming@@@8NotFound::NotFound24
??_3?$_CORBA_Sequence@UTaggedProfile@IOP@@@@QAEXAAVNetBufferedStream@@@Z
__CT??_R0?AVNO_RESOURCES@CORBA@@@8NO_RESOURCES::NO_RESOURCES12
__CTA3?AVNotFound@NamingContext@CosNaming@@
__CTA3?AVNO_RESOURCES@CORBA@@
??1tcpSocketRope@@UAE@XZ
__TI3?AVNotFound@NamingContext@CosNaming@@
??1COMM_FAILURE@CORBA@@UAE@XZ
__TI3?AVNO_RESOURCES@CORBA@@
?SendMsgErrorMessage@GIOP_S@@AAEXXZ
??_R0?AVException@CORBA@@@8
??_R0?AVBAD_TYPECODE@CORBA@@@8
??_EAnonymousObject@@$4PPPPPPPM@A@AEPAXI@Z
__CT??_R0?AVException@CORBA@@@8Exception::Exception4
__CT??_R0?AVBAD_TYPECODE@CORBA@@@8BAD_TYPECODE::BAD_TYPECODE12
?remote_is@tcpSocketRope@@UAEEAAPAVEndpoint@@@Z
?MaxMessageSize@omniORB@@SAIXZ
??_R0?AVSystemException@CORBA@@@8
??1OBJECT_NOT_EXIST@CORBA@@UAE@XZ
__CTA3?AVBAD_TYPECODE@CORBA@@
__CT??_R0?AVSystemException@CORBA@@@8SystemException::SystemException12
??_GAnonymousObject@@UAEPAXI@Z
__TI3?AVBAD_TYPECODE@CORBA@@
??0tcpsock_rendezvouser@@QAE@PAVtcpSocketRope@@@Z
??_R0?AVNO_IMPLEMENT@CORBA@@@8
??_R0?AVMARSHAL@CORBA@@@8
?_widenFromTheMostDerivedIntf@AnonymousObject@@$2PPPPPPPM@A@AEPAXPBD@Z
??1TRANSIENT@CORBA@@UAE@XZ
__CT??_R0?AVNO_IMPLEMENT@CORBA@@@8NO_IMPLEMENT::NO_IMPLEMENT12
__CT??_R0?AVMARSHAL@CORBA@@@8MARSHAL::MARSHAL12
?this_is@tcpSocketRope@@UAEEAAPAVEndpoint@@@Z
__CTA3?AVNO_IMPLEMENT@CORBA@@
__CTA3?AVMARSHAL@CORBA@@
??_EAnonymousObject@@WDA@AEPAXI@Z
??_7tcpsock_rendezvouser@@6B@
__TI3?AVNO_IMPLEMENT@CORBA@@
__TI3?AVMARSHAL@CORBA@@
??0OBJECT_NOT_EXIST@CORBA@@QAE@ABV01@@Z
??_R0?AVINITIALIZE@CORBA@@@8
__CT??_R0?AVINITIALIZE@CORBA@@@8INITIALIZE::INITIALIZE12
?iopProfile@tcpSocketRope@@UAEXPBEIAAUTaggedProfile@IOP@@@Z
?run_undetached@omni_thread@@EAEPAXPAX@Z
__CTA3?AVINITIALIZE@CORBA@@
__TI3?AVINITIALIZE@CORBA@@
??_Gtcpsock_rendezvouser@@UAEPAXI@Z
??0COMM_FAILURE@CORBA@@QAE@ABV01@@Z
??_R0?AVINTERNAL@CORBA@@@8
??1tcpsock_rendezvouser@@UAE@XZ
__CT??_R0?AVINTERNAL@CORBA@@@8INTERNAL::INTERNAL12
__CTA3?AVINTERNAL@CORBA@@
??0TRANSIENT@CORBA@@QAE@ABV01@@Z
??1ProfileBody@IIOP@@QAE@XZ
__TI3?AVINTERNAL@CORBA@@
??_R0?AVNO_PERMISSION@CORBA@@@8
?run@tcpsock_rendezvouser@@UAEXPAX@Z
__CT??_R0?AVNO_PERMISSION@CORBA@@@8NO_PERMISSION::NO_PERMISSION12
??_R0?AVfatalException@omniORB@@@8
??1omniObject@@MAE@XZ
?newStrand@tcpSocketRope@@UAEPAVStrand@@XZ
__CTA3?AVNO_PERMISSION@CORBA@@
__TI3?AVNO_PERMISSION@CORBA@@
??_R0?AVOBJECT_NOT_EXIST@CORBA@@@8
??_C@_0CE@LLIA@tcpsock_rendezvouser?5thread?3?5exi@
__CT??_R0?AVOBJECT_NOT_EXIST@CORBA@@@8OBJECT_NOT_EXIST::OBJECT_NOT_EXIST12
??_C@_0DO@JFBL@tcpsock_rendezvouser?5thread?5cann@
__CTA3?AVOBJECT_NOT_EXIST@CORBA@@
??_C@_0CD@CBAH@Server?5rendezvouser?5thread?5exite@
__TI3?AVOBJECT_NOT_EXIST@CORBA@@
??_C@_01PKAG@?3?$AA@
??_R0?AVINV_OBJREF@CORBA@@@8
??_C@_01FCOA@?5?$AA@
__CT??_R0?AVINV_OBJREF@CORBA@@@8INV_OBJREF::INV_OBJREF12
??_C@_0DO@FNEP@?$CD?$CD?$CD?$CD?5You?5have?5caught?5an?5omniORB2@
__CTA3?AVINV_OBJREF@CORBA@@
??_C@_0DA@LDNE@tcpsock_rendezvouser?5thread?3?5acc@
__TI3?AVINV_OBJREF@CORBA@@
??_C@_0CF@OCMI@tcpsock_rendezvouser?5thread?3?5sta@
?endl@@YAAAVostream@@AAV1@@Z
??_R0?AVIMP_LIMIT@CORBA@@@8
__CT??_R0?AVIMP_LIMIT@CORBA@@@8IMP_LIMIT::IMP_LIMIT12
?flush@@YAAAVostream@@AAV1@@Z
__CTA3?AVIMP_LIMIT@CORBA@@
__TI3?AVIMP_LIMIT@CORBA@@
??1omniRopeAndKey@@QAE@XZ
??0strand_server@@QAE@PAVStrand@@@Z
??_R0?AVNO_MEMORY@CORBA@@@8
__CT??_R0?AVNO_MEMORY@CORBA@@@8NO_MEMORY::NO_MEMORY12
?align_and_put_bytes@NetBufferedStream@@AAEPAXW4alignment_t@omni@@I@Z
__CTA3?AVNO_MEMORY@CORBA@@
??1fatalException@omniORB@@QAE@XZ
??_7strand_server@@6B@
__TI3?AVNO_MEMORY@CORBA@@
??_R0?AVBAD_PARAM@CORBA@@@8
??0SystemException@CORBA@@QAE@ABV01@@Z
__CT??_R0?AVBAD_PARAM@CORBA@@@8BAD_PARAM::BAD_PARAM12
??_Gstrand_server@@UAEPAXI@Z
__CTA3?AVBAD_PARAM@CORBA@@
__TI3?AVBAD_PARAM@CORBA@@
??1SystemException@CORBA@@UAE@XZ
??_R0?AVUNKNOWN@CORBA@@@8
?run@strand_server@@UAEXPAX@Z
__CT??_R0?AVUNKNOWN@CORBA@@@8UNKNOWN::UNKNOWN12
??_R0?AVCOMM_FAILURE@CORBA@@@8
__CTA3?AVUNKNOWN@CORBA@@
?NP_RepositoryId@SystemException@CORBA@@UBEPBDXZ
__TI3?AVUNKNOWN@CORBA@@
??_C@_00A@?$AA@
??_R0?AVBAD_OPERATION@CORBA@@@8
??_C@_0BN@NDPG@strand_server?5thread?3?5exits?4?$AA@
__CT??_R0?AVBAD_OPERATION@CORBA@@@8BAD_OPERATION::BAD_OPERATION12
??0UserException@CORBA@@QAE@ABV01@@Z
??_C@_0EM@GDLG@?$CD?$CD?$CD?$CD?5A?5system?5exception?5has?5occu@
__CTA3?AVBAD_OPERATION@CORBA@@
??_C@_0BG@DMIC@?$CJ?4?5Connection?5closed?4?$AA@
__TI3?AVBAD_OPERATION@CORBA@@
??_C@_0CE@DCDN@?$CD?$CD?$CD?$CD?5Commnication?5failure?5?$CIminor@
??1Object_var@CORBA@@QAE@XZ
??_C@_0BO@ENKA@strand_server?5thread?3?5starts?4?$AA@
??_GSystemException@CORBA@@UAEPAXI@Z
??_GCOMM_FAILURE@CORBA@@UAEPAXI@Z
?run@killer@@UAEXPAX@Z
??_C@_0CK@DDGM@Testing?5code?3?5killer?5thread?5slee@
??_GMARSHAL@CORBA@@UAEPAXI@Z
??_C@_0CG@IPIL@Testing?5code?3?5killer?5shutdown?5st@
??_C@_0CG@BNNE@Testing?5code?3?5killer?5thread?5wake@
??_GTRANSIENT@CORBA@@UAEPAXI@Z
??1COMM_FAILURE@CORBA@@UAE@XZ
??_C@_0DA@OAEN@CORBA?3?3ORB_init?5failed?3?5ORBid?5is@
??_C@_01KMMP@?$CJ?$AA@
??_C@_0CP@LOJF@CORBA?3?3ORB_init?5failed?3?5unknown?5@
??1MARSHAL@CORBA@@UAE@XZ
??_C@_0DK@DPE@CORBA?3?3ORB_init?5failed?3?5invalid?5@
??_C@_0ED@PFBM@CORBA?3?3ORB_init?5failed?3?5missing?5@
??_C@_0P@GGCM@?9ORBstrictIIOP?$AA@
??1TRANSIENT@CORBA@@UAE@XZ
??_C@_0DK@JHDN@CORBA?3?3ORB_init?5failed?3?5invalid?5@
??_C@_02MHMJ@?$CFu?$AA@
??_C@_0DK@DMJP@CORBA?3?3ORB_init?5failed?3?5missing?5@
??1NotFound@NamingContext@CosNaming@@UAE@XZ
??_C@_0P@FNAM@?9ORBtraceLevel?$AA@
??_C@_0DC@MBLE@CORBA?3?3ORB_init?5failed?3?5missing?5@
??_C@_06FJFD@?9ORBid?$AA@
??_C@_09HCHL@?$CJ?5is?5not?5?$AA@
??1CannotProceed@NamingContext@CosNaming@@UAE@XZ
??_C@_0CE@GFAA@CORBA?3?3ORB_init?5failed?3?5the?5ORBi@
??1InvalidName@NamingContext@CosNaming@@UAE@XZ
??1AlreadyBound@NamingContext@CosNaming@@UAE@XZ
??_C@_0CJ@BDFE@BOA_init?5failed?3?5BOAid?5is?5not?5sp@
??_C@_0CI@EMAL@BOA_init?5failed?3?5unknown?5BOA?5arg@
??0Exception@CORBA@@QAE@ABV01@@Z
??_C@_0CA@BBBM@?5to?5accept?5incoming?5IIOP?5calls?4?$AA@
??_C@_0CC@NKMM@BOA_init?5falied?3?5cannot?5use?5port@
??0MARSHAL@CORBA@@QAE@ABV01@@Z
??_C@_0DC@DINJ@BOA_init?5failed?3?5invalid?5?9BOAiio@
??_3@YAXAAKAAVNetBufferedStream@@@Z
??_C@_0DC@JKEL@BOA_init?5failed?3?5missing?5?9BOAiio@
??0SystemException@CORBA@@QAE@KW4CompletionStatus@1@@Z
??_C@_0O@KKCI@?9BOAiiop_port?$AA@
??0COMM_FAILURE@CORBA@@QAE@ABV01@@Z
??_C@_0CL@BAMP@BOA_init?5failed?3?5missing?5?9BOAid?5@
??_C@_06EBFJ@?9BOAid?$AA@
??_GUNKNOWN@CORBA@@UAEPAXI@Z
??_C@_0BN@LONI@BOA_init?5failed?3?5the?5BOAid?5?$CI?$AA@
??0TRANSIENT@CORBA@@QAE@ABV01@@Z
??_GBAD_PARAM@CORBA@@UAEPAXI@Z
?rebind@_proxy_NamingContext@CosNaming@@UAEXABV?$_CORBA_Unbounded_Sequence@UNameComponent@CosNaming@@@@PAVObject@CORBA@@@Z
??_GNO_MEMORY@CORBA@@UAEPAXI@Z
??_C@_06NBJO@rebind?$AA@
??_GIMP_LIMIT@CORBA@@UAEPAXI@Z
??_GINV_OBJREF@CORBA@@UAEPAXI@Z
??_GOBJECT_NOT_EXIST@CORBA@@UAEPAXI@Z
??_GNO_PERMISSION@CORBA@@UAEPAXI@Z
?bind_context@_proxy_NamingContext@CosNaming@@UAEXABV?$_CORBA_Unbounded_Sequence@UNameComponent@CosNaming@@@@PAVNamingContext@2@@Z
??_GINTERNAL@CORBA@@UAEPAXI@Z
??_C@_0N@CNL@bind_context?$AA@
??_GINITIALIZE@CORBA@@UAEPAXI@Z
??_GNO_IMPLEMENT@CORBA@@UAEPAXI@Z
??_GBAD_TYPECODE@CORBA@@UAEPAXI@Z
??_GBAD_OPERATION@CORBA@@UAEPAXI@Z
??_GNO_RESOURCES@CORBA@@UAEPAXI@Z
?rebind_context@_proxy_NamingContext@CosNaming@@UAEXABV?$_CORBA_Unbounded_Sequence@UNameComponent@CosNaming@@@@PAVNamingContext@2@@Z
??_GNO_RESPONSE@CORBA@@UAEPAXI@Z
??_C@_0P@DLAE@rebind_context?$AA@
??_GPERSIST_STORE@CORBA@@UAEPAXI@Z
??_GBAD_INV_ORDER@CORBA@@UAEPAXI@Z
??_GTRANSIENT@CORBA@@UAEPAXI@Z
??_GFREE_MEM@CORBA@@UAEPAXI@Z
?resolve@_proxy_NamingContext@CosNaming@@UAEPAVObject@CORBA@@ABV?$_CORBA_Unbounded_Sequence@UNameComponent@CosNaming@@@@@Z
??_GINV_IDENT@CORBA@@UAEPAXI@Z
??_C@_07JHHH@resolve?$AA@
??_GINV_FLAG@CORBA@@UAEPAXI@Z
??_GINTF_REPOS@CORBA@@UAEPAXI@Z
??_GBAD_CONTEXT@CORBA@@UAEPAXI@Z
??_GOBJ_ADAPTER@CORBA@@UAEPAXI@Z
??_GDATA_CONVERSION@CORBA@@UAEPAXI@Z
?unbind@_proxy_NamingContext@CosNaming@@UAEXABV?$_CORBA_Unbounded_Sequence@UNameComponent@CosNaming@@@@@Z
??1UNKNOWN@CORBA@@UAE@XZ
??_C@_06NILL@unbind?$AA@
??1BAD_PARAM@CORBA@@UAE@XZ
??1NO_MEMORY@CORBA@@UAE@XZ
??1IMP_LIMIT@CORBA@@UAE@XZ
??1INV_OBJREF@CORBA@@UAE@XZ
?new_context@_proxy_NamingContext@CosNaming@@UAEPAVNamingContext@2@XZ
??1OBJECT_NOT_EXIST@CORBA@@UAE@XZ
??_C@_0M@HFN@new_context?$AA@
??1NO_PERMISSION@CORBA@@UAE@XZ
??_7UNKNOWN@CORBA@@6B@
??_R0?AVUNKNOWN@CORBA@@@8
__CT??_R0?AVUNKNOWN@CORBA@@@8UNKNOWN::UNKNOWN12
??1INTERNAL@CORBA@@UAE@XZ
__CTA3?AVUNKNOWN@CORBA@@
__TI3?AVUNKNOWN@CORBA@@
??1INITIALIZE@CORBA@@UAE@XZ
??1NO_IMPLEMENT@CORBA@@UAE@XZ
??1BAD_TYPECODE@CORBA@@UAE@XZ
??_GUNKNOWN@CORBA@@UAEPAXI@Z
??1BAD_OPERATION@CORBA@@UAE@XZ
??1UNKNOWN@CORBA@@UAE@XZ
??1NO_RESOURCES@CORBA@@UAE@XZ
??0UNKNOWN@CORBA@@QAE@ABV01@@Z
??1NO_RESPONSE@CORBA@@UAE@XZ
?bind_new_context@_proxy_NamingContext@CosNaming@@UAEPAVNamingContext@2@ABV?$_CORBA_Unbounded_Sequence@UNameComponent@CosNaming@@@@@Z
??1PERSIST_STORE@CORBA@@UAE@XZ
??_C@_0BB@DDI@bind_new_context?$AA@
??1BAD_INV_ORDER@CORBA@@UAE@XZ
??1TRANSIENT@CORBA@@UAE@XZ
??1FREE_MEM@CORBA@@UAE@XZ
??1INV_IDENT@CORBA@@UAE@XZ
?destroy@_proxy_NamingContext@CosNaming@@UAEXXZ
??1INV_FLAG@CORBA@@UAE@XZ
??_C@_0CJ@MKNO@IDL?3CosNaming?1NamingContext?1NotE@
??1INTF_REPOS@CORBA@@UAE@XZ
??_C@_07EKHM@destroy?$AA@
??_R0?AVNotEmpty@NamingContext@CosNaming@@@8
__CT??_R0?AVNotEmpty@NamingContext@CosNaming@@@8NotEmpty::NotEmpty4
??1BAD_CONTEXT@CORBA@@UAE@XZ
__CTA3?AVNotEmpty@NamingContext@CosNaming@@
__TI3?AVNotEmpty@NamingContext@CosNaming@@
??1OBJ_ADAPTER@CORBA@@UAE@XZ
??1DATA_CONVERSION@CORBA@@UAE@XZ
??0BAD_OPERATION@CORBA@@QAE@ABV01@@Z
??1NotEmpty@NamingContext@CosNaming@@UAE@XZ
??0UNKNOWN@CORBA@@QAE@ABV01@@Z
?___list@_proxy_NamingContext@CosNaming@@UAEXKAAPAV?$_CORBA_Unbounded_Sequence@UBinding@CosNaming@@@@AAPAVBindingIterator@2@@Z
??0BAD_PARAM@CORBA@@QAE@ABV01@@Z
??_C@_04JOGO@list?$AA@
??_C@_0CC@JPNO@IDL?3CosNaming?1BindingIterator?31?4@
??0NO_MEMORY@CORBA@@QAE@ABV01@@Z
??0IMP_LIMIT@CORBA@@QAE@ABV01@@Z
??0INV_OBJREF@CORBA@@QAE@ABV01@@Z
??_3@YAXAAKAAVNetBufferedStream@@@Z
?list@NamingContext@CosNaming@@QAEXKV?$_CORBA_Sequence_OUT_arg@V?$_CORBA_Unbounded_Sequence@UBinding@CosNaming@@@@V?$_CORBA_Sequence_Var@V?$_CORBA_Unbounded_Sequence@UBinding@CosNaming@@@@UBinding@CosNaming@@@@@@V?$_CORBA_ObjRef_OUT_arg@VBindingIterator@CosNaming@@V?$_CORBA_ObjRef_Var@VBindingIterator@CosNaming@@VBindingIterator_Helper@2@@@V?$_CORBA_ObjRef_Member@VBindingIterator@CosNaming@@VBindingIterator_Helper@2@@@VBindingIterator_Helper@2@@@@Z
??0OBJECT_NOT_EXIST@CORBA@@QAE@ABV01@@Z
??0?$_CORBA_Sequence_OUT_arg@V?$_CORBA_Unbounded_Sequence@UBinding@CosNaming@@@@V?$_CORBA_Sequence_Var@V?$_CORBA_Unbounded_Sequence@UBinding@CosNaming@@@@UBinding@CosNaming@@@@@@QAE@AAPAV?$_CORBA_Unbounded_Sequence@UBinding@CosNaming@@@@@Z
??0?$_CORBA_ObjRef_OUT_arg@VBindingIterator@CosNaming@@V?$_CORBA_ObjRef_Var@VBindingIterator@CosNaming@@VBindingIterator_Helper@2@@@V?$_CORBA_ObjRef_Member@VBindingIterator@CosNaming@@VBindingIterator_Helper@2@@@VBindingIterator_Helper@2@@@QAE@AAPAVBindingIterator@CosNaming@@@Z
??0NO_PERMISSION@CORBA@@QAE@ABV01@@Z
??1?$_CORBA_Sequence@UBinding@CosNaming@@@@QAE@XZ
?length@?$_CORBA_Sequence@UBinding@CosNaming@@@@QAEXK@Z
??0INTERNAL@CORBA@@QAE@ABV01@@Z
??0Binding@CosNaming@@QAE@XZ
??0INITIALIZE@CORBA@@QAE@ABV01@@Z
?dispatch@_sk_NamingContext@CosNaming@@UAEEAAVGIOP_S@@PBDE@Z
??0NO_IMPLEMENT@CORBA@@QAE@ABV01@@Z
??0BAD_TYPECODE@CORBA@@QAE@ABV01@@Z
??_7BAD_OPERATION@CORBA@@6B@
??0NO_RESOURCES@CORBA@@QAE@ABV01@@Z
??_R0?AVBAD_OPERATION@CORBA@@@8
__CT??_R0?AVBAD_OPERATION@CORBA@@@8BAD_OPERATION::BAD_OPERATION12
__CTA3?AVBAD_OPERATION@CORBA@@
??0NO_RESPONSE@CORBA@@QAE@ABV01@@Z
__TI3?AVBAD_OPERATION@CORBA@@
??0PERSIST_STORE@CORBA@@QAE@ABV01@@Z
??0BAD_INV_ORDER@CORBA@@QAE@ABV01@@Z
??0TRANSIENT@CORBA@@QAE@ABV01@@Z
??0FREE_MEM@CORBA@@QAE@ABV01@@Z
??0INV_IDENT@CORBA@@QAE@ABV01@@Z
??0INV_FLAG@CORBA@@QAE@ABV01@@Z
??0INTF_REPOS@CORBA@@QAE@ABV01@@Z
??0BAD_CONTEXT@CORBA@@QAE@ABV01@@Z
??0OBJ_ADAPTER@CORBA@@QAE@ABV01@@Z
??0DATA_CONVERSION@CORBA@@QAE@ABV01@@Z
??_GBAD_OPERATION@CORBA@@UAEPAXI@Z
??1BAD_OPERATION@CORBA@@UAE@XZ
??0?$_CORBA_Sequence_OUT_arg@V?$_CORBA_Unbounded_Sequence@UBinding@CosNaming@@@@V?$_CORBA_Sequence_Var@V?$_CORBA_Unbounded_Sequence@UBinding@CosNaming@@@@UBinding@CosNaming@@@@@@QAE@AAV?$_CORBA_Sequence_Var@V?$_CORBA_Unbounded_Sequence@UBinding@CosNaming@@@@UBinding@CosNaming@@@@@Z
??0?$_CORBA_ObjRef_OUT_arg@VBindingIterator@CosNaming@@V?$_CORBA_ObjRef_Var@VBindingIterator@CosNaming@@VBindingIterator_Helper@2@@@V?$_CORBA_ObjRef_Member@VBindingIterator@CosNaming@@VBindingIterator_Helper@2@@@VBindingIterator_Helper@2@@@QAE@AAV?$_CORBA_ObjRef_Var@VBindingIterator@CosNaming@@VBindingIterator_Helper@2@@@@Z
??1?$_CORBA_Sequence_Var@V?$_CORBA_Unbounded_Sequence@UBinding@CosNaming@@@@UBinding@CosNaming@@@@QAE@XZ
??1?$_CORBA_ObjRef_Var@VBindingIterator@CosNaming@@VBindingIterator_Helper@2@@@QAE@XZ
??0BAD_OPERATION@CORBA@@QAE@ABV01@@Z
??1?$_CORBA_ObjRef_Var@VNamingContext@CosNaming@@VNamingContext_Helper@2@@@QAE@XZ
??0_sk_NamingContext@CosNaming@@QAE@ABUomniObjectKey@@@Z
??_7NamingContext@CosNaming@@6BObject@CORBA@@@
??_7NamingContext@CosNaming@@6BomniObject@@@
??_7NamingContext@CosNaming@@6B01@@
??_8_sk_NamingContext@CosNaming@@7BNamingContext@1@@
??_8_sk_NamingContext@CosNaming@@7B01@@
??_7_sk_NamingContext@CosNaming@@6BNamingContext@1@@
??_7_sk_NamingContext@CosNaming@@6BObject@CORBA@@@
??_7_sk_NamingContext@CosNaming@@6BomniObject@@@
??_7_sk_NamingContext@CosNaming@@6B@
??1Object@CORBA@@UAE@XZ
??_7Object@CORBA@@6B@
??_GObject@CORBA@@UAEPAXI@Z
??_DNamingContext@CosNaming@@QAEXXZ
?_key@_sk_NamingContext@CosNaming@@QAE?AUomniObjectKey@@XZ
?_duplicate@NamingContext@CosNaming@@SAPAV12@PAV12@@Z
?_narrow@NamingContext@CosNaming@@SAPAV12@PAVObject@CORBA@@@Z
?_widenFromTheMostDerivedIntf@NamingContext@CosNaming@@MAEPAXPBD@Z
?_is_a@NamingContext@CosNaming@@SAEPBD@Z
?_nil@NamingContext_Helper@CosNaming@@SAPAVNamingContext@2@XZ
?is_nil@NamingContext_Helper@CosNaming@@SAEPAVNamingContext@2@@Z
?release@NamingContext_Helper@CosNaming@@SAXPAVNamingContext@2@@Z
?duplicate@NamingContext_Helper@CosNaming@@SAXPAVNamingContext@2@@Z
?NP_alignedSize@NamingContext_Helper@CosNaming@@SAIPAVNamingContext@2@I@Z
?marshalObjRef@NamingContext_Helper@CosNaming@@SAXPAVNamingContext@2@AAVNetBufferedStream@@@Z
?unmarshalObjRef@NamingContext_Helper@CosNaming@@SAPAVNamingContext@2@AAVNetBufferedStream@@@Z
?marshalObjRef@NamingContext_Helper@CosNaming@@SAXPAVNamingContext@2@AAVMemBufferedStream@@@Z
?unmarshalObjRef@NamingContext_Helper@CosNaming@@SAPAVNamingContext@2@AAVMemBufferedStream@@@Z
?irRepoId@NamingContext_proxyObjectFactory@CosNaming@@UBEPBDXZ
?newProxyObject@NamingContext_proxyObjectFactory@CosNaming@@UAEPAVObject@CORBA@@PAVRope@@PAEIPAV?$_CORBA_Unbounded_Sequence@UTaggedProfile@IOP@@@@E@Z
??_8_proxy_NamingContext@CosNaming@@7BNamingContext@1@@
??_8_proxy_NamingContext@CosNaming@@7B01@@
??_7_proxy_NamingContext@CosNaming@@6BNamingContext@1@@
??_7_proxy_NamingContext@CosNaming@@6BObject@CORBA@@@
??_7_proxy_NamingContext@CosNaming@@6BomniObject@@@
??_7NO_MEMORY@CORBA@@6B@
??_R0?AVNO_MEMORY@CORBA@@@8
__CT??_R0?AVNO_MEMORY@CORBA@@@8NO_MEMORY::NO_MEMORY12
__CTA3?AVNO_MEMORY@CORBA@@
__TI3?AVNO_MEMORY@CORBA@@
??_GNO_MEMORY@CORBA@@UAEPAXI@Z
??1NO_MEMORY@CORBA@@UAE@XZ
??0NO_MEMORY@CORBA@@QAE@ABV01@@Z
?is_a@NamingContext_proxyObjectFactory@CosNaming@@UBEEPBD@Z
?_nil@NamingContext@CosNaming@@SAPAV12@XZ
??_8_nil_NamingContext@CosNaming@@7BNamingContext@1@@
??_8_nil_NamingContext@CosNaming@@7B01@@
??_7_nil_NamingContext@CosNaming@@6BNamingContext@1@@
??_7_nil_NamingContext@CosNaming@@6BObject@CORBA@@@
??_7_nil_NamingContext@CosNaming@@6BomniObject@@@
??_7NamingContext_proxyObjectFactory@CosNaming@@6B@
??_GNamingContext_proxyObjectFactory@CosNaming@@UAEPAXI@Z
?___next_one@_proxy_BindingIterator@CosNaming@@UAEEAAPAUBinding@2@@Z
??_C@_08MKFN@next_one?$AA@
?next_one@BindingIterator@CosNaming@@QAEEV?$_CORBA_ConstrType_Variable_OUT_arg@UBinding@CosNaming@@V?$_CORBA_ConstrType_Variable_Var@UBinding@CosNaming@@@@@@@Z
??0?$_CORBA_ConstrType_Variable_OUT_arg@UBinding@CosNaming@@V?$_CORBA_ConstrType_Variable_Var@UBinding@CosNaming@@@@@@QAE@AAPAUBinding@CosNaming@@@Z
?___next_n@_proxy_BindingIterator@CosNaming@@UAEEKAAPAV?$_CORBA_Unbounded_Sequence@UBinding@CosNaming@@@@@Z
??_C@_06EGFM@next_n?$AA@
?next_n@BindingIterator@CosNaming@@QAEEKV?$_CORBA_Sequence_OUT_arg@V?$_CORBA_Unbounded_Sequence@UBinding@CosNaming@@@@V?$_CORBA_Sequence_Var@V?$_CORBA_Unbounded_Sequence@UBinding@CosNaming@@@@UBinding@CosNaming@@@@@@@Z
?destroy@_proxy_BindingIterator@CosNaming@@UAEXXZ
?dispatch@_sk_BindingIterator@CosNaming@@UAEEAAVGIOP_S@@PBDE@Z
??0?$_CORBA_ConstrType_Variable_OUT_arg@UBinding@CosNaming@@V?$_CORBA_ConstrType_Variable_Var@UBinding@CosNaming@@@@@@QAE@AAV?$_CORBA_ConstrType_Variable_Var@UBinding@CosNaming@@@@@Z
??1?$_CORBA_ConstrType_Variable_Var@UBinding@CosNaming@@@@QAE@XZ
??0_sk_BindingIterator@CosNaming@@QAE@ABUomniObjectKey@@@Z
??_7BindingIterator@CosNaming@@6BObject@CORBA@@@
??_7BindingIterator@CosNaming@@6BomniObject@@@
??_7BindingIterator@CosNaming@@6B01@@
??_8_sk_BindingIterator@CosNaming@@7BBindingIterator@1@@
??_8_sk_BindingIterator@CosNaming@@7B01@@
??_7_sk_BindingIterator@CosNaming@@6BBindingIterator@1@@
??_7_sk_BindingIterator@CosNaming@@6BObject@CORBA@@@
??_7_sk_BindingIterator@CosNaming@@6BomniObject@@@
??_7_sk_BindingIterator@CosNaming@@6B@
??_DBindingIterator@CosNaming@@QAEXXZ
?_key@_sk_BindingIterator@CosNaming@@QAE?AUomniObjectKey@@XZ
?_duplicate@BindingIterator@CosNaming@@SAPAV12@PAV12@@Z
?_narrow@BindingIterator@CosNaming@@SAPAV12@PAVObject@CORBA@@@Z
?_widenFromTheMostDerivedIntf@BindingIterator@CosNaming@@MAEPAXPBD@Z
?_is_a@BindingIterator@CosNaming@@SAEPBD@Z
?_nil@BindingIterator_Helper@CosNaming@@SAPAVBindingIterator@2@XZ
?is_nil@BindingIterator_Helper@CosNaming@@SAEPAVBindingIterator@2@@Z
?release@BindingIterator_Helper@CosNaming@@SAXPAVBindingIterator@2@@Z
?duplicate@BindingIterator_Helper@CosNaming@@SAXPAVBindingIterator@2@@Z
?NP_alignedSize@BindingIterator_Helper@CosNaming@@SAIPAVBindingIterator@2@I@Z
?marshalObjRef@BindingIterator_Helper@CosNaming@@SAXPAVBindingIterator@2@AAVNetBufferedStream@@@Z
?unmarshalObjRef@BindingIterator_Helper@CosNaming@@SAPAVBindingIterator@2@AAVNetBufferedStream@@@Z
?marshalObjRef@BindingIterator_Helper@CosNaming@@SAXPAVBindingIterator@2@AAVMemBufferedStream@@@Z
?unmarshalObjRef@BindingIterator_Helper@CosNaming@@SAPAVBindingIterator@2@AAVMemBufferedStream@@@Z
?irRepoId@BindingIterator_proxyObjectFactory@CosNaming@@UBEPBDXZ
?newProxyObject@BindingIterator_proxyObjectFactory@CosNaming@@UAEPAVObject@CORBA@@PAVRope@@PAEIPAV?$_CORBA_Unbounded_Sequence@UTaggedProfile@IOP@@@@E@Z
??_8_proxy_BindingIterator@CosNaming@@7BBindingIterator@1@@
??_8_proxy_BindingIterator@CosNaming@@7B01@@
??_7_proxy_BindingIterator@CosNaming@@6BBindingIterator@1@@
??_7_proxy_BindingIterator@CosNaming@@6BObject@CORBA@@@
??_7_proxy_BindingIterator@CosNaming@@6BomniObject@@@
?is_a@BindingIterator_proxyObjectFactory@CosNaming@@UBEEPBD@Z
?_nil@BindingIterator@CosNaming@@SAPAV12@XZ
??_8_nil_BindingIterator@CosNaming@@7BBindingIterator@1@@
??_8_nil_BindingIterator@CosNaming@@7B01@@
??_7_nil_BindingIterator@CosNaming@@6BBindingIterator@1@@
??_7_nil_BindingIterator@CosNaming@@6BObject@CORBA@@@
??_7_nil_BindingIterator@CosNaming@@6BomniObject@@@
??_7BindingIterator_proxyObjectFactory@CosNaming@@6B@
??_GBindingIterator_proxyObjectFactory@CosNaming@@UAEPAXI@Z
??_E_sk_NamingContext@CosNaming@@$4PPPPPPPM@A@AEPAXI@Z
??_G_sk_NamingContext@CosNaming@@UAEPAXI@Z
?dispatch@_sk_NamingContext@CosNaming@@$4PPPPPPPM@A@AEEAAVGIOP_S@@PBDE@Z
?_widenFromTheMostDerivedIntf@_sk_NamingContext@CosNaming@@$2PPPPPPPM@A@AEPAXPBD@Z
?_widenFromTheMostDerivedIntf@_sk_NamingContext@CosNaming@@MAEPAXPBD@Z
??_E_sk_NamingContext@CosNaming@@WDA@AEPAXI@Z
?___list@_sk_NamingContext@CosNaming@@$4PPPPPPPM@A@AEXKAAPAV?$_CORBA_Unbounded_Sequence@UBinding@CosNaming@@@@AAPAVBindingIterator@2@@Z
?___list@_sk_NamingContext@CosNaming@@UAEXKAAPAV?$_CORBA_Unbounded_Sequence@UBinding@CosNaming@@@@AAPAVBindingIterator@2@@Z
??_E_sk_BindingIterator@CosNaming@@$4PPPPPPPM@A@AEPAXI@Z
??_G_sk_BindingIterator@CosNaming@@UAEPAXI@Z
?dispatch@_sk_BindingIterator@CosNaming@@$4PPPPPPPM@A@AEEAAVGIOP_S@@PBDE@Z
?_widenFromTheMostDerivedIntf@_sk_BindingIterator@CosNaming@@$2PPPPPPPM@A@AEPAXPBD@Z
?_widenFromTheMostDerivedIntf@_sk_BindingIterator@CosNaming@@MAEPAXPBD@Z
??_E_sk_BindingIterator@CosNaming@@WDA@AEPAXI@Z
?___next_one@_sk_BindingIterator@CosNaming@@$4PPPPPPPM@A@AEEAAPAUBinding@2@@Z
?___next_one@_sk_BindingIterator@CosNaming@@UAEEAAPAUBinding@2@@Z
?___next_n@_sk_BindingIterator@CosNaming@@$4PPPPPPPM@A@AEEKAAPAV?$_CORBA_Unbounded_Sequence@UBinding@CosNaming@@@@@Z
?___next_n@_sk_BindingIterator@CosNaming@@UAEEKAAPAV?$_CORBA_Unbounded_Sequence@UBinding@CosNaming@@@@@Z
??_EBindingIterator@CosNaming@@$2PPPPPPPM@A@AEPAXI@Z
??_GBindingIterator@CosNaming@@MAEPAXI@Z
?_widenFromTheMostDerivedIntf@BindingIterator@CosNaming@@$2PPPPPPPM@A@AEPAXPBD@Z
??_EBindingIterator@CosNaming@@ODA@AEPAXI@Z
??_ENamingContext@CosNaming@@$2PPPPPPPM@A@AEPAXI@Z
??_GNamingContext@CosNaming@@MAEPAXI@Z
?_widenFromTheMostDerivedIntf@NamingContext@CosNaming@@$2PPPPPPPM@A@AEPAXPBD@Z
??_ENamingContext@CosNaming@@ODA@AEPAXI@Z
??_E_nil_NamingContext@CosNaming@@$4PPPPPPPM@A@AEPAXI@Z
??_G_nil_NamingContext@CosNaming@@UAEPAXI@Z
?_widenFromTheMostDerivedIntf@_nil_NamingContext@CosNaming@@$2PPPPPPPM@A@AEPAXPBD@Z
?_widenFromTheMostDerivedIntf@_nil_NamingContext@CosNaming@@MAEPAXPBD@Z
??_E_nil_NamingContext@CosNaming@@WDA@AEPAXI@Z
?bind@_nil_NamingContext@CosNaming@@$4PPPPPPPM@A@AEXABV?$_CORBA_Unbounded_Sequence@UNameComponent@CosNaming@@@@PAVObject@CORBA@@@Z
?bind@_nil_NamingContext@CosNaming@@UAEXABV?$_CORBA_Unbounded_Sequence@UNameComponent@CosNaming@@@@PAVObject@CORBA@@@Z
?rebind@_nil_NamingContext@CosNaming@@$4PPPPPPPM@A@AEXABV?$_CORBA_Unbounded_Sequence@UNameComponent@CosNaming@@@@PAVObject@CORBA@@@Z
?rebind@_nil_NamingContext@CosNaming@@UAEXABV?$_CORBA_Unbounded_Sequence@UNameComponent@CosNaming@@@@PAVObject@CORBA@@@Z
?bind_context@_nil_NamingContext@CosNaming@@$4PPPPPPPM@A@AEXABV?$_CORBA_Unbounded_Sequence@UNameComponent@CosNaming@@@@PAVNamingContext@2@@Z
?bind_context@_nil_NamingContext@CosNaming@@UAEXABV?$_CORBA_Unbounded_Sequence@UNameComponent@CosNaming@@@@PAVNamingContext@2@@Z
?rebind_context@_nil_NamingContext@CosNaming@@$4PPPPPPPM@A@AEXABV?$_CORBA_Unbounded_Sequence@UNameComponent@CosNaming@@@@PAVNamingContext@2@@Z
?rebind_context@_nil_NamingContext@CosNaming@@UAEXABV?$_CORBA_Unbounded_Sequence@UNameComponent@CosNaming@@@@PAVNamingContext@2@@Z
?resolve@_nil_NamingContext@CosNaming@@$4PPPPPPPM@A@AEPAVObject@CORBA@@ABV?$_CORBA_Unbounded_Sequence@UNameComponent@CosNaming@@@@@Z
?resolve@_nil_NamingContext@CosNaming@@UAEPAVObject@CORBA@@ABV?$_CORBA_Unbounded_Sequence@UNameComponent@CosNaming@@@@@Z
?unbind@_nil_NamingContext@CosNaming@@$4PPPPPPPM@A@AEXABV?$_CORBA_Unbounded_Sequence@UNameComponent@CosNaming@@@@@Z
?unbind@_nil_NamingContext@CosNaming@@UAEXABV?$_CORBA_Unbounded_Sequence@UNameComponent@CosNaming@@@@@Z
?new_context@_nil_NamingContext@CosNaming@@$4PPPPPPPM@A@AEPAVNamingContext@2@XZ
?new_context@_nil_NamingContext@CosNaming@@UAEPAVNamingContext@2@XZ
?bind_new_context@_nil_NamingContext@CosNaming@@$4PPPPPPPM@A@AEPAVNamingContext@2@ABV?$_CORBA_Unbounded_Sequence@UNameComponent@CosNaming@@@@@Z
?bind_new_context@_nil_NamingContext@CosNaming@@UAEPAVNamingContext@2@ABV?$_CORBA_Unbounded_Sequence@UNameComponent@CosNaming@@@@@Z
?destroy@_nil_NamingContext@CosNaming@@$4PPPPPPPM@A@AEXXZ
?destroy@_nil_NamingContext@CosNaming@@UAEXXZ
?___list@_nil_NamingContext@CosNaming@@$4PPPPPPPM@A@AEXKAAPAV?$_CORBA_Unbounded_Sequence@UBinding@CosNaming@@@@AAPAVBindingIterator@2@@Z
?___list@_nil_NamingContext@CosNaming@@UAEXKAAPAV?$_CORBA_Unbounded_Sequence@UBinding@CosNaming@@@@AAPAVBindingIterator@2@@Z
??_E_proxy_BindingIterator@CosNaming@@$4PPPPPPPM@A@AEPAXI@Z
??_G_proxy_BindingIterator@CosNaming@@UAEPAXI@Z
?_widenFromTheMostDerivedIntf@_proxy_BindingIterator@CosNaming@@$2PPPPPPPM@A@AEPAXPBD@Z
?_widenFromTheMostDerivedIntf@_proxy_BindingIterator@CosNaming@@MAEPAXPBD@Z
??_E_proxy_BindingIterator@CosNaming@@WDA@AEPAXI@Z
?___next_one@_proxy_BindingIterator@CosNaming@@$4PPPPPPPM@A@AEEAAPAUBinding@2@@Z
?___next_n@_proxy_BindingIterator@CosNaming@@$4PPPPPPPM@A@AEEKAAPAV?$_CORBA_Unbounded_Sequence@UBinding@CosNaming@@@@@Z
?destroy@_proxy_BindingIterator@CosNaming@@$4PPPPPPPM@A@AEXXZ
??_E_nil_BindingIterator@CosNaming@@$4PPPPPPPM@A@AEPAXI@Z
??_G_nil_BindingIterator@CosNaming@@UAEPAXI@Z
?_widenFromTheMostDerivedIntf@_nil_BindingIterator@CosNaming@@$2PPPPPPPM@A@AEPAXPBD@Z
?_widenFromTheMostDerivedIntf@_nil_BindingIterator@CosNaming@@MAEPAXPBD@Z
??_E_nil_BindingIterator@CosNaming@@WDA@AEPAXI@Z
?___next_one@_nil_BindingIterator@CosNaming@@$4PPPPPPPM@A@AEEAAPAUBinding@2@@Z
?___next_one@_nil_BindingIterator@CosNaming@@UAEEAAPAUBinding@2@@Z
?___next_n@_nil_BindingIterator@CosNaming@@$4PPPPPPPM@A@AEEKAAPAV?$_CORBA_Unbounded_Sequence@UBinding@CosNaming@@@@@Z
?___next_n@_nil_BindingIterator@CosNaming@@UAEEKAAPAV?$_CORBA_Unbounded_Sequence@UBinding@CosNaming@@@@@Z
?destroy@_nil_BindingIterator@CosNaming@@$4PPPPPPPM@A@AEXXZ
?destroy@_nil_BindingIterator@CosNaming@@UAEXXZ
??_E_proxy_NamingContext@CosNaming@@$4PPPPPPPM@A@AEPAXI@Z
??_G_proxy_NamingContext@CosNaming@@UAEPAXI@Z
?_widenFromTheMostDerivedIntf@_proxy_NamingContext@CosNaming@@$2PPPPPPPM@A@AEPAXPBD@Z
?_widenFromTheMostDerivedIntf@_proxy_NamingContext@CosNaming@@MAEPAXPBD@Z
??_E_proxy_NamingContext@CosNaming@@WDA@AEPAXI@Z
?bind@_proxy_NamingContext@CosNaming@@$4PPPPPPPM@A@AEXABV?$_CORBA_Unbounded_Sequence@UNameComponent@CosNaming@@@@PAVObject@CORBA@@@Z
?rebind@_proxy_NamingContext@CosNaming@@$4PPPPPPPM@A@AEXABV?$_CORBA_Unbounded_Sequence@UNameComponent@CosNaming@@@@PAVObject@CORBA@@@Z
?bind_context@_proxy_NamingContext@CosNaming@@$4PPPPPPPM@A@AEXABV?$_CORBA_Unbounded_Sequence@UNameComponent@CosNaming@@@@PAVNamingContext@2@@Z
?rebind_context@_proxy_NamingContext@CosNaming@@$4PPPPPPPM@A@AEXABV?$_CORBA_Unbounded_Sequence@UNameComponent@CosNaming@@@@PAVNamingContext@2@@Z
?resolve@_proxy_NamingContext@CosNaming@@$4PPPPPPPM@A@AEPAVObject@CORBA@@ABV?$_CORBA_Unbounded_Sequence@UNameComponent@CosNaming@@@@@Z
?unbind@_proxy_NamingContext@CosNaming@@$4PPPPPPPM@A@AEXABV?$_CORBA_Unbounded_Sequence@UNameComponent@CosNaming@@@@@Z
?new_context@_proxy_NamingContext@CosNaming@@$4PPPPPPPM@A@AEPAVNamingContext@2@XZ
?bind_new_context@_proxy_NamingContext@CosNaming@@$4PPPPPPPM@A@AEPAVNamingContext@2@ABV?$_CORBA_Unbounded_Sequence@UNameComponent@CosNaming@@@@@Z
?destroy@_proxy_NamingContext@CosNaming@@$4PPPPPPPM@A@AEXXZ
?___list@_proxy_NamingContext@CosNaming@@$4PPPPPPPM@A@AEXKAAPAV?$_CORBA_Unbounded_Sequence@UBinding@CosNaming@@@@AAPAVBindingIterator@2@@Z
